
MMIO.elf:     file format elf32-avr

Sections:
Idx Name          Size      VMA       LMA       File off  Algn
  0 .data         000004a2  00800100  00001e14  00001ea8  2**0
                  CONTENTS, ALLOC, LOAD, DATA
  1 .text         00001e14  00000000  00000000  00000094  2**1
                  CONTENTS, ALLOC, LOAD, READONLY, CODE
  2 .bss          000000af  008005a2  008005a2  0000234a  2**0
                  ALLOC
  3 .stab         000029e8  00000000  00000000  0000234c  2**2
                  CONTENTS, READONLY, DEBUGGING
  4 .stabstr      00000718  00000000  00000000  00004d34  2**0
                  CONTENTS, READONLY, DEBUGGING
  5 .debug_aranges 000001b0  00000000  00000000  00005450  2**3
                  CONTENTS, READONLY, DEBUGGING
  6 .debug_info   000021ba  00000000  00000000  00005600  2**0
                  CONTENTS, READONLY, DEBUGGING
  7 .debug_abbrev 00000a48  00000000  00000000  000077ba  2**0
                  CONTENTS, READONLY, DEBUGGING
  8 .debug_line   00001247  00000000  00000000  00008202  2**0
                  CONTENTS, READONLY, DEBUGGING
  9 .debug_frame  00000418  00000000  00000000  0000944c  2**2
                  CONTENTS, READONLY, DEBUGGING
 10 .debug_str    000005eb  00000000  00000000  00009864  2**0
                  CONTENTS, READONLY, DEBUGGING
 11 .debug_loc    000014b2  00000000  00000000  00009e4f  2**0
                  CONTENTS, READONLY, DEBUGGING
 12 .debug_ranges 00000098  00000000  00000000  0000b301  2**0
                  CONTENTS, READONLY, DEBUGGING

Disassembly of section .text:

00000000 <__vectors>:
       0:	0c 94 c7 00 	jmp	0x18e	; 0x18e <__ctors_end>
       4:	0c 94 e7 00 	jmp	0x1ce	; 0x1ce <__bad_interrupt>
       8:	0c 94 e7 00 	jmp	0x1ce	; 0x1ce <__bad_interrupt>
       c:	0c 94 e7 00 	jmp	0x1ce	; 0x1ce <__bad_interrupt>
      10:	0c 94 e7 00 	jmp	0x1ce	; 0x1ce <__bad_interrupt>
      14:	0c 94 97 01 	jmp	0x32e	; 0x32e <__vector_5>
      18:	0c 94 e7 00 	jmp	0x1ce	; 0x1ce <__bad_interrupt>
      1c:	0c 94 e7 00 	jmp	0x1ce	; 0x1ce <__bad_interrupt>
      20:	0c 94 e7 00 	jmp	0x1ce	; 0x1ce <__bad_interrupt>
      24:	0c 94 e7 00 	jmp	0x1ce	; 0x1ce <__bad_interrupt>
      28:	0c 94 e7 00 	jmp	0x1ce	; 0x1ce <__bad_interrupt>
      2c:	0c 94 e7 00 	jmp	0x1ce	; 0x1ce <__bad_interrupt>
      30:	0c 94 e7 00 	jmp	0x1ce	; 0x1ce <__bad_interrupt>
      34:	0c 94 e7 00 	jmp	0x1ce	; 0x1ce <__bad_interrupt>
      38:	0c 94 e7 00 	jmp	0x1ce	; 0x1ce <__bad_interrupt>
      3c:	0c 94 e7 00 	jmp	0x1ce	; 0x1ce <__bad_interrupt>
      40:	0c 94 5f 03 	jmp	0x6be	; 0x6be <__vector_16>
      44:	0c 94 e7 00 	jmp	0x1ce	; 0x1ce <__bad_interrupt>
      48:	0c 94 e7 00 	jmp	0x1ce	; 0x1ce <__bad_interrupt>
      4c:	0c 94 e7 00 	jmp	0x1ce	; 0x1ce <__bad_interrupt>
      50:	0c 94 e7 00 	jmp	0x1ce	; 0x1ce <__bad_interrupt>
      54:	0c 94 e7 00 	jmp	0x1ce	; 0x1ce <__bad_interrupt>
      58:	0c 94 e7 00 	jmp	0x1ce	; 0x1ce <__bad_interrupt>
      5c:	0c 94 e7 00 	jmp	0x1ce	; 0x1ce <__bad_interrupt>
      60:	0c 94 e7 00 	jmp	0x1ce	; 0x1ce <__bad_interrupt>
      64:	0c 94 e7 00 	jmp	0x1ce	; 0x1ce <__bad_interrupt>
      68:	0c 94 e7 00 	jmp	0x1ce	; 0x1ce <__bad_interrupt>
      6c:	0c 94 e7 00 	jmp	0x1ce	; 0x1ce <__bad_interrupt>
      70:	0c 94 e7 00 	jmp	0x1ce	; 0x1ce <__bad_interrupt>
      74:	0c 94 c9 01 	jmp	0x392	; 0x392 <__vector_29>
      78:	0c 94 e7 00 	jmp	0x1ce	; 0x1ce <__bad_interrupt>
      7c:	0c 94 e7 00 	jmp	0x1ce	; 0x1ce <__bad_interrupt>
      80:	0c 94 e7 00 	jmp	0x1ce	; 0x1ce <__bad_interrupt>
      84:	0c 94 e7 00 	jmp	0x1ce	; 0x1ce <__bad_interrupt>
      88:	0c 94 e7 00 	jmp	0x1ce	; 0x1ce <__bad_interrupt>

0000008c <__c.1905>:
      8c:	6e 61 6e 00                                         nan.

00000090 <__c.1903>:
      90:	69 6e 66 00 00 40 7a 10 f3 5a 00 a0 72 4e 18 09     inf..@z..Z..rN..
      a0:	00 10 a5 d4 e8 00 00 e8 76 48 17 00 00 e4 0b 54     ........vH.....T
      b0:	02 00 00 ca 9a 3b 00 00 00 e1 f5 05 00 00 80 96     .....;..........
      c0:	98 00 00 00 40 42 0f 00 00 00 a0 86 01 00 00 00     ....@B..........
      d0:	10 27 00 00 00 00 e8 03 00 00 00 00 64 00 00 00     .'..........d...
      e0:	00 00 0a 00 00 00 00 00 01 00 00 00 00 00 2c 76     ..............,v
      f0:	d8 88 dc 67 4f 08 23 df c1 df ae 59 e1 b1 b7 96     ...gO.#....Y....
     100:	e5 e3 e4 53 c6 3a e6 51 99 76 96 e8 e6 c2 84 26     ...S.:.Q.v.....&
     110:	eb 89 8c 9b 62 ed 40 7c 6f fc ef bc 9c 9f 40 f2     ....b.@|o.....@.
     120:	ba a5 6f a5 f4 90 05 5a 2a f7 5c 93 6b 6c f9 67     ..o....Z*.\.kl.g
     130:	6d c1 1b fc e0 e4 0d 47 fe f5 20 e6 b5 00 d0 ed     m......G.. .....
     140:	90 2e 03 00 94 35 77 05 00 80 84 1e 08 00 00 20     .....5w........ 
     150:	4e 0a 00 00 00 c8 0c 33 33 33 33 0f 98 6e 12 83     N......3333..n..
     160:	11 41 ef 8d 21 14 89 3b e6 55 16 cf fe e6 db 18     .A..!..;.U......
     170:	d1 84 4b 38 1b f7 7c 1d 90 1d a4 bb e4 24 20 32     ..K8..|......$ 2
     180:	84 72 5e 22 81 00 c9 f1 24 ec a1 e5 3d 27           .r^"....$...='

0000018e <__ctors_end>:
     18e:	11 24       	eor	r1, r1
     190:	1f be       	out	0x3f, r1	; 63
     192:	cf ef       	ldi	r28, 0xFF	; 255
     194:	d0 e1       	ldi	r29, 0x10	; 16
     196:	de bf       	out	0x3e, r29	; 62
     198:	cd bf       	out	0x3d, r28	; 61

0000019a <__do_copy_data>:
     19a:	15 e0       	ldi	r17, 0x05	; 5
     19c:	a0 e0       	ldi	r26, 0x00	; 0
     19e:	b1 e0       	ldi	r27, 0x01	; 1
     1a0:	e4 e1       	ldi	r30, 0x14	; 20
     1a2:	fe e1       	ldi	r31, 0x1E	; 30
     1a4:	00 e0       	ldi	r16, 0x00	; 0
     1a6:	0b bf       	out	0x3b, r16	; 59
     1a8:	02 c0       	rjmp	.+4      	; 0x1ae <__do_copy_data+0x14>
     1aa:	07 90       	elpm	r0, Z+
     1ac:	0d 92       	st	X+, r0
     1ae:	a2 3a       	cpi	r26, 0xA2	; 162
     1b0:	b1 07       	cpc	r27, r17
     1b2:	d9 f7       	brne	.-10     	; 0x1aa <__do_copy_data+0x10>
     1b4:	1b be       	out	0x3b, r1	; 59

000001b6 <__do_clear_bss>:
     1b6:	16 e0       	ldi	r17, 0x06	; 6
     1b8:	a2 ea       	ldi	r26, 0xA2	; 162
     1ba:	b5 e0       	ldi	r27, 0x05	; 5
     1bc:	01 c0       	rjmp	.+2      	; 0x1c0 <.do_clear_bss_start>

000001be <.do_clear_bss_loop>:
     1be:	1d 92       	st	X+, r1

000001c0 <.do_clear_bss_start>:
     1c0:	a1 35       	cpi	r26, 0x51	; 81
     1c2:	b1 07       	cpc	r27, r17
     1c4:	e1 f7       	brne	.-8      	; 0x1be <.do_clear_bss_loop>
     1c6:	0e 94 f9 04 	call	0x9f2	; 0x9f2 <main>
     1ca:	0c 94 08 0f 	jmp	0x1e10	; 0x1e10 <_exit>

000001ce <__bad_interrupt>:
     1ce:	0c 94 00 00 	jmp	0	; 0x0 <__vectors>

000001d2 <lcdWriteData>:
	#else
		//round up by default
		__ticks_dc = (uint32_t)(ceil(fabs(__tmp)));
	#endif

	__builtin_avr_delay_cycles(__ticks_dc);
     1d2:	ef e9       	ldi	r30, 0x9F	; 159
     1d4:	ff e0       	ldi	r31, 0x0F	; 15
     1d6:	31 97       	sbiw	r30, 0x01	; 1
     1d8:	f1 f7       	brne	.-4      	; 0x1d6 <lcdWriteData+0x4>
     1da:	00 c0       	rjmp	.+0      	; 0x1dc <lcdWriteData+0xa>
     1dc:	00 00       	nop
void lcdWriteData(unsigned char data)
{
//	while( lcdReadCommand() & 0x80 );	// 1000 0000 => 0x80 Busy Check
	_delay_ms(1);

	LCD_DATA_WRITE = data;
     1de:	80 93 02 c0 	sts	0xC002, r24
}
     1e2:	08 95       	ret

000001e4 <lcdReadCommand>:
void dotMatrix(char line, unsigned char red, unsigned char green);


unsigned char lcdReadCommand(void)
{
	return LCD_CMD_READ;
     1e4:	80 91 01 c0 	lds	r24, 0xC001
}
     1e8:	08 95       	ret

000001ea <lcdWriteCommand>:
     1ea:	ef e9       	ldi	r30, 0x9F	; 159
     1ec:	ff e0       	ldi	r31, 0x0F	; 15
     1ee:	31 97       	sbiw	r30, 0x01	; 1
     1f0:	f1 f7       	brne	.-4      	; 0x1ee <lcdWriteCommand+0x4>
     1f2:	00 c0       	rjmp	.+0      	; 0x1f4 <lcdWriteCommand+0xa>
     1f4:	00 00       	nop
void lcdWriteCommand(unsigned char cmd)
{
//	while( lcdReadCommand() & 0x80 );	// 1000 0000 => 0x80 Busy Check
	_delay_ms(1);

	LCD_CMD_WRITE = cmd;
     1f6:	80 93 00 c0 	sts	0xC000, r24
}
     1fa:	08 95       	ret

000001fc <lcdReadData>:

unsigned char lcdReadData(void)
{
	return LCD_DATA_READ;
     1fc:	80 91 03 c0 	lds	r24, 0xC003
}
     200:	08 95       	ret

00000202 <lcdBacklight>:
	LCD_DATA_WRITE = data;
}

void lcdBacklight(char mode)
{
	if( mode == 0 ) {
     202:	88 23       	and	r24, r24
     204:	11 f4       	brne	.+4      	; 0x20a <lcdBacklight+0x8>
		// Backlight Off
		PORTE |= 0x04;
     206:	1a 9a       	sbi	0x03, 2	; 3
     208:	08 95       	ret
	}
	else {
		// Backlight On
		PORTE &= ~0x04;
     20a:	1a 98       	cbi	0x03, 2	; 3
     20c:	08 95       	ret

0000020e <lcdInit>:
	}
}

void lcdInit(void)
{
	DDRE |= 0x04;
     20e:	12 9a       	sbi	0x02, 2	; 2
     210:	8f e5       	ldi	r24, 0x5F	; 95
     212:	9a ee       	ldi	r25, 0xEA	; 234
     214:	01 97       	sbiw	r24, 0x01	; 1
     216:	f1 f7       	brne	.-4      	; 0x214 <lcdInit+0x6>
     218:	00 c0       	rjmp	.+0      	; 0x21a <lcdInit+0xc>
     21a:	00 00       	nop
     21c:	af e9       	ldi	r26, 0x9F	; 159
     21e:	bf e0       	ldi	r27, 0x0F	; 15
     220:	11 97       	sbiw	r26, 0x01	; 1
     222:	f1 f7       	brne	.-4      	; 0x220 <lcdInit+0x12>
     224:	00 c0       	rjmp	.+0      	; 0x226 <lcdInit+0x18>
     226:	00 00       	nop
void lcdWriteCommand(unsigned char cmd)
{
//	while( lcdReadCommand() & 0x80 );	// 1000 0000 => 0x80 Busy Check
	_delay_ms(1);

	LCD_CMD_WRITE = cmd;
     228:	e0 e0       	ldi	r30, 0x00	; 0
     22a:	f0 ec       	ldi	r31, 0xC0	; 192
     22c:	88 e3       	ldi	r24, 0x38	; 56
     22e:	80 83       	st	Z, r24
     230:	af e9       	ldi	r26, 0x9F	; 159
     232:	bf e0       	ldi	r27, 0x0F	; 15
     234:	11 97       	sbiw	r26, 0x01	; 1
     236:	f1 f7       	brne	.-4      	; 0x234 <lcdInit+0x26>
     238:	00 c0       	rjmp	.+0      	; 0x23a <lcdInit+0x2c>
     23a:	00 00       	nop
     23c:	80 83       	st	Z, r24
     23e:	af e1       	ldi	r26, 0x1F	; 31
     240:	be e4       	ldi	r27, 0x4E	; 78
     242:	11 97       	sbiw	r26, 0x01	; 1
     244:	f1 f7       	brne	.-4      	; 0x242 <lcdInit+0x34>
     246:	00 c0       	rjmp	.+0      	; 0x248 <lcdInit+0x3a>
     248:	00 00       	nop
     24a:	af e9       	ldi	r26, 0x9F	; 159
     24c:	bf e0       	ldi	r27, 0x0F	; 15
     24e:	11 97       	sbiw	r26, 0x01	; 1
     250:	f1 f7       	brne	.-4      	; 0x24e <lcdInit+0x40>
     252:	00 c0       	rjmp	.+0      	; 0x254 <lcdInit+0x46>
     254:	00 00       	nop
     256:	80 83       	st	Z, r24
	#else
		//round up by default
		__ticks_dc = (uint32_t)(ceil(fabs(__tmp)));
	#endif

	__builtin_avr_delay_cycles(__ticks_dc);
     258:	8f e8       	ldi	r24, 0x8F	; 143
     25a:	91 e0       	ldi	r25, 0x01	; 1
     25c:	01 97       	sbiw	r24, 0x01	; 1
     25e:	f1 f7       	brne	.-4      	; 0x25c <lcdInit+0x4e>
     260:	00 c0       	rjmp	.+0      	; 0x262 <lcdInit+0x54>
     262:	00 00       	nop
	#else
		//round up by default
		__ticks_dc = (uint32_t)(ceil(fabs(__tmp)));
	#endif

	__builtin_avr_delay_cycles(__ticks_dc);
     264:	af e9       	ldi	r26, 0x9F	; 159
     266:	bf e0       	ldi	r27, 0x0F	; 15
     268:	11 97       	sbiw	r26, 0x01	; 1
     26a:	f1 f7       	brne	.-4      	; 0x268 <lcdInit+0x5a>
     26c:	00 c0       	rjmp	.+0      	; 0x26e <lcdInit+0x60>
     26e:	00 00       	nop
     270:	88 e0       	ldi	r24, 0x08	; 8
     272:	80 83       	st	Z, r24
     274:	8f e9       	ldi	r24, 0x9F	; 159
     276:	9f e0       	ldi	r25, 0x0F	; 15
     278:	01 97       	sbiw	r24, 0x01	; 1
     27a:	f1 f7       	brne	.-4      	; 0x278 <lcdInit+0x6a>
     27c:	00 c0       	rjmp	.+0      	; 0x27e <lcdInit+0x70>
     27e:	00 00       	nop
     280:	81 e0       	ldi	r24, 0x01	; 1
     282:	80 83       	st	Z, r24
     284:	af e9       	ldi	r26, 0x9F	; 159
     286:	bf e0       	ldi	r27, 0x0F	; 15
     288:	11 97       	sbiw	r26, 0x01	; 1
     28a:	f1 f7       	brne	.-4      	; 0x288 <lcdInit+0x7a>
     28c:	00 c0       	rjmp	.+0      	; 0x28e <lcdInit+0x80>
     28e:	00 00       	nop
     290:	86 e0       	ldi	r24, 0x06	; 6
     292:	80 83       	st	Z, r24
     294:	8f e9       	ldi	r24, 0x9F	; 159
     296:	9f e0       	ldi	r25, 0x0F	; 15
     298:	01 97       	sbiw	r24, 0x01	; 1
     29a:	f1 f7       	brne	.-4      	; 0x298 <lcdInit+0x8a>
     29c:	00 c0       	rjmp	.+0      	; 0x29e <lcdInit+0x90>
     29e:	00 00       	nop
     2a0:	8c e0       	ldi	r24, 0x0C	; 12
     2a2:	80 83       	st	Z, r24
	_delay_us(100);
	lcdWriteCommand(0x08);
	lcdWriteCommand(0x01);
	lcdWriteCommand(0x06);
	lcdWriteCommand(0x0C);
}
     2a4:	08 95       	ret

000002a6 <lcdString>:

void lcdString(char *str)
{
     2a6:	fc 01       	movw	r30, r24
	while( *str )	lcdWriteData(*str++);
     2a8:	08 c0       	rjmp	.+16     	; 0x2ba <lcdString+0x14>
     2aa:	af e9       	ldi	r26, 0x9F	; 159
     2ac:	bf e0       	ldi	r27, 0x0F	; 15
     2ae:	11 97       	sbiw	r26, 0x01	; 1
     2b0:	f1 f7       	brne	.-4      	; 0x2ae <lcdString+0x8>
     2b2:	00 c0       	rjmp	.+0      	; 0x2b4 <lcdString+0xe>
     2b4:	00 00       	nop
void lcdWriteData(unsigned char data)
{
//	while( lcdReadCommand() & 0x80 );	// 1000 0000 => 0x80 Busy Check
	_delay_ms(1);

	LCD_DATA_WRITE = data;
     2b6:	80 93 02 c0 	sts	0xC002, r24
	lcdWriteCommand(0x0C);
}

void lcdString(char *str)
{
	while( *str )	lcdWriteData(*str++);
     2ba:	81 91       	ld	r24, Z+
     2bc:	88 23       	and	r24, r24
     2be:	a9 f7       	brne	.-22     	; 0x2aa <lcdString+0x4>
}
     2c0:	08 95       	ret

000002c2 <lcdGotoXY>:

void lcdGotoXY(char x, char y)
{
	lcdWriteCommand(0x80 | x | (y * 0x40));
     2c2:	62 95       	swap	r22
     2c4:	66 0f       	add	r22, r22
     2c6:	66 0f       	add	r22, r22
     2c8:	60 7c       	andi	r22, 0xC0	; 192
     2ca:	80 68       	ori	r24, 0x80	; 128
     2cc:	68 2b       	or	r22, r24
     2ce:	8f e9       	ldi	r24, 0x9F	; 159
     2d0:	9f e0       	ldi	r25, 0x0F	; 15
     2d2:	01 97       	sbiw	r24, 0x01	; 1
     2d4:	f1 f7       	brne	.-4      	; 0x2d2 <lcdGotoXY+0x10>
     2d6:	00 c0       	rjmp	.+0      	; 0x2d8 <lcdGotoXY+0x16>
     2d8:	00 00       	nop
void lcdWriteCommand(unsigned char cmd)
{
//	while( lcdReadCommand() & 0x80 );	// 1000 0000 => 0x80 Busy Check
	_delay_ms(1);

	LCD_CMD_WRITE = cmd;
     2da:	60 93 00 c0 	sts	0xC000, r22
}

void lcdGotoXY(char x, char y)
{
	lcdWriteCommand(0x80 | x | (y * 0x40));
}
     2de:	08 95       	ret

000002e0 <lcdNumber>:

void lcdNumber(unsigned char num)
{
     2e0:	38 2f       	mov	r19, r24
	lcdWriteData((num / 100) + 0x30);		// 백의자리
     2e2:	64 e6       	ldi	r22, 0x64	; 100
     2e4:	0e 94 ad 0b 	call	0x175a	; 0x175a <__udivmodqi4>
     2e8:	80 5d       	subi	r24, 0xD0	; 208
     2ea:	af e9       	ldi	r26, 0x9F	; 159
     2ec:	bf e0       	ldi	r27, 0x0F	; 15
     2ee:	11 97       	sbiw	r26, 0x01	; 1
     2f0:	f1 f7       	brne	.-4      	; 0x2ee <lcdNumber+0xe>
     2f2:	00 c0       	rjmp	.+0      	; 0x2f4 <lcdNumber+0x14>
     2f4:	00 00       	nop
void lcdWriteData(unsigned char data)
{
//	while( lcdReadCommand() & 0x80 );	// 1000 0000 => 0x80 Busy Check
	_delay_ms(1);

	LCD_DATA_WRITE = data;
     2f6:	e2 e0       	ldi	r30, 0x02	; 2
     2f8:	f0 ec       	ldi	r31, 0xC0	; 192
     2fa:	80 83       	st	Z, r24
}

void lcdNumber(unsigned char num)
{
	lcdWriteData((num / 100) + 0x30);		// 백의자리
	lcdWriteData(((num % 100) / 10) + 0x30);	// 십의자리
     2fc:	2a e0       	ldi	r18, 0x0A	; 10
     2fe:	89 2f       	mov	r24, r25
     300:	62 2f       	mov	r22, r18
     302:	0e 94 ad 0b 	call	0x175a	; 0x175a <__udivmodqi4>
     306:	80 5d       	subi	r24, 0xD0	; 208
     308:	af e9       	ldi	r26, 0x9F	; 159
     30a:	bf e0       	ldi	r27, 0x0F	; 15
     30c:	11 97       	sbiw	r26, 0x01	; 1
     30e:	f1 f7       	brne	.-4      	; 0x30c <lcdNumber+0x2c>
     310:	00 c0       	rjmp	.+0      	; 0x312 <lcdNumber+0x32>
     312:	00 00       	nop
void lcdWriteData(unsigned char data)
{
//	while( lcdReadCommand() & 0x80 );	// 1000 0000 => 0x80 Busy Check
	_delay_ms(1);

	LCD_DATA_WRITE = data;
     314:	80 83       	st	Z, r24

void lcdNumber(unsigned char num)
{
	lcdWriteData((num / 100) + 0x30);		// 백의자리
	lcdWriteData(((num % 100) / 10) + 0x30);	// 십의자리
	lcdWriteData((num % 10) + 0x30);		// 일의자리
     316:	83 2f       	mov	r24, r19
     318:	0e 94 ad 0b 	call	0x175a	; 0x175a <__udivmodqi4>
     31c:	90 5d       	subi	r25, 0xD0	; 208
     31e:	af e9       	ldi	r26, 0x9F	; 159
     320:	bf e0       	ldi	r27, 0x0F	; 15
     322:	11 97       	sbiw	r26, 0x01	; 1
     324:	f1 f7       	brne	.-4      	; 0x322 <lcdNumber+0x42>
     326:	00 c0       	rjmp	.+0      	; 0x328 <lcdNumber+0x48>
     328:	00 00       	nop
void lcdWriteData(unsigned char data)
{
//	while( lcdReadCommand() & 0x80 );	// 1000 0000 => 0x80 Busy Check
	_delay_ms(1);

	LCD_DATA_WRITE = data;
     32a:	90 83       	st	Z, r25
void lcdNumber(unsigned char num)
{
	lcdWriteData((num / 100) + 0x30);		// 백의자리
	lcdWriteData(((num % 100) / 10) + 0x30);	// 십의자리
	lcdWriteData((num % 10) + 0x30);		// 일의자리
}
     32c:	08 95       	ret

0000032e <__vector_5>:

ISR(INT4_vect)
{
     32e:	1f 92       	push	r1
     330:	0f 92       	push	r0
     332:	0f b6       	in	r0, 0x3f	; 63
     334:	0f 92       	push	r0
     336:	11 24       	eor	r1, r1
     338:	5f 93       	push	r21
     33a:	6f 93       	push	r22
     33c:	7f 93       	push	r23
     33e:	8f 93       	push	r24
     340:	9f 93       	push	r25
     342:	af 93       	push	r26
     344:	bf 93       	push	r27
	if( count == 0 ) {
     346:	80 91 32 06 	lds	r24, 0x0632
     34a:	88 23       	and	r24, r24
     34c:	41 f4       	brne	.+16     	; 0x35e <__vector_5+0x30>
		count = 4;
     34e:	84 e0       	ldi	r24, 0x04	; 4
     350:	80 93 32 06 	sts	0x0632, r24
		segment[4] = 0;
     354:	10 92 40 06 	sts	0x0640, r1
		segment[5] = 0;
     358:	10 92 41 06 	sts	0x0641, r1
     35c:	0a c0       	rjmp	.+20     	; 0x372 <__vector_5+0x44>
	}
	else	count = (count + 2) % 10;
     35e:	80 91 32 06 	lds	r24, 0x0632
     362:	90 e0       	ldi	r25, 0x00	; 0
     364:	02 96       	adiw	r24, 0x02	; 2
     366:	6a e0       	ldi	r22, 0x0A	; 10
     368:	70 e0       	ldi	r23, 0x00	; 0
     36a:	0e 94 cd 0b 	call	0x179a	; 0x179a <__divmodhi4>
     36e:	80 93 32 06 	sts	0x0632, r24

	tick0 = 0;
     372:	10 92 3b 06 	sts	0x063B, r1
     376:	10 92 3a 06 	sts	0x063A, r1
}
     37a:	bf 91       	pop	r27
     37c:	af 91       	pop	r26
     37e:	9f 91       	pop	r25
     380:	8f 91       	pop	r24
     382:	7f 91       	pop	r23
     384:	6f 91       	pop	r22
     386:	5f 91       	pop	r21
     388:	0f 90       	pop	r0
     38a:	0f be       	out	0x3f, r0	; 63
     38c:	0f 90       	pop	r0
     38e:	1f 90       	pop	r1
     390:	18 95       	reti

00000392 <__vector_29>:
}

// Timer3 Overflow Interrupt Handler
// 0,2s Timer
ISR(TIMER3_OVF_vect)
{
     392:	1f 92       	push	r1
     394:	0f 92       	push	r0
     396:	0f b6       	in	r0, 0x3f	; 63
     398:	0f 92       	push	r0
     39a:	0b b6       	in	r0, 0x3b	; 59
     39c:	0f 92       	push	r0
     39e:	11 24       	eor	r1, r1
     3a0:	8f 93       	push	r24
     3a2:	9f 93       	push	r25
     3a4:	ef 93       	push	r30
     3a6:	ff 93       	push	r31
	TCNT3 = 65536 - 50000;
     3a8:	80 eb       	ldi	r24, 0xB0	; 176
     3aa:	9c e3       	ldi	r25, 0x3C	; 60
     3ac:	90 93 89 00 	sts	0x0089, r25
     3b0:	80 93 88 00 	sts	0x0088, r24

	temp_timer++;
     3b4:	80 91 39 06 	lds	r24, 0x0639
     3b8:	8f 5f       	subi	r24, 0xFF	; 255
     3ba:	80 93 39 06 	sts	0x0639, r24
	// year, month, day, hour, min, sec, tick3
	if( ++tick3 == 5 ) {
     3be:	80 91 37 06 	lds	r24, 0x0637
     3c2:	8f 5f       	subi	r24, 0xFF	; 255
     3c4:	80 93 37 06 	sts	0x0637, r24
     3c8:	85 30       	cpi	r24, 0x05	; 5
     3ca:	d1 f5       	brne	.+116    	; 0x440 <__vector_29+0xae>
		tick3 = 0;
     3cc:	10 92 37 06 	sts	0x0637, r1
		if( ++sec == 60 ) {
     3d0:	80 91 45 06 	lds	r24, 0x0645
     3d4:	8f 5f       	subi	r24, 0xFF	; 255
     3d6:	80 93 45 06 	sts	0x0645, r24
     3da:	8c 33       	cpi	r24, 0x3C	; 60
     3dc:	89 f5       	brne	.+98     	; 0x440 <__vector_29+0xae>
			sec = 0;
     3de:	10 92 45 06 	sts	0x0645, r1
			if( ++min == 60 ) {
     3e2:	80 91 43 06 	lds	r24, 0x0643
     3e6:	8f 5f       	subi	r24, 0xFF	; 255
     3e8:	80 93 43 06 	sts	0x0643, r24
     3ec:	8c 33       	cpi	r24, 0x3C	; 60
     3ee:	41 f5       	brne	.+80     	; 0x440 <__vector_29+0xae>
				min = 0;
     3f0:	10 92 43 06 	sts	0x0643, r1
				if( ++hour == 24 ) {
     3f4:	80 91 42 06 	lds	r24, 0x0642
     3f8:	8f 5f       	subi	r24, 0xFF	; 255
     3fa:	80 93 42 06 	sts	0x0642, r24
     3fe:	88 31       	cpi	r24, 0x18	; 24
     400:	f9 f4       	brne	.+62     	; 0x440 <__vector_29+0xae>
					hour = 0;
     402:	10 92 42 06 	sts	0x0642, r1
					if( ++day == monthTable[month] ) {
     406:	80 91 46 06 	lds	r24, 0x0646
     40a:	8f 5f       	subi	r24, 0xFF	; 255
     40c:	80 93 46 06 	sts	0x0646, r24
     410:	e0 91 38 06 	lds	r30, 0x0638
     414:	f0 e0       	ldi	r31, 0x00	; 0
     416:	ea 57       	subi	r30, 0x7A	; 122
     418:	fa 4f       	sbci	r31, 0xFA	; 250
     41a:	90 81       	ld	r25, Z
     41c:	89 17       	cp	r24, r25
     41e:	81 f4       	brne	.+32     	; 0x440 <__vector_29+0xae>
						day = 0;
     420:	10 92 46 06 	sts	0x0646, r1
						if( ++month == 12 ) {
     424:	80 91 38 06 	lds	r24, 0x0638
     428:	8f 5f       	subi	r24, 0xFF	; 255
     42a:	80 93 38 06 	sts	0x0638, r24
     42e:	8c 30       	cpi	r24, 0x0C	; 12
     430:	39 f4       	brne	.+14     	; 0x440 <__vector_29+0xae>
							month = 0;
     432:	10 92 38 06 	sts	0x0638, r1
							year++;
     436:	80 91 44 06 	lds	r24, 0x0644
     43a:	8f 5f       	subi	r24, 0xFF	; 255
     43c:	80 93 44 06 	sts	0x0644, r24
					}
				}
			}
		}
	}
}
     440:	ff 91       	pop	r31
     442:	ef 91       	pop	r30
     444:	9f 91       	pop	r25
     446:	8f 91       	pop	r24
     448:	0f 90       	pop	r0
     44a:	0b be       	out	0x3b, r0	; 59
     44c:	0f 90       	pop	r0
     44e:	0f be       	out	0x3f, r0	; 63
     450:	0f 90       	pop	r0
     452:	1f 90       	pop	r1
     454:	18 95       	reti

00000456 <getkey>:

unsigned char getkey(unsigned char keyin)
{
     456:	28 2f       	mov	r18, r24
	unsigned char key, ret = 0;

	keyflag = 0;
     458:	10 92 33 06 	sts	0x0633, r1

	// 1열 검사
	PORTD |= 0xF0;
     45c:	92 b3       	in	r25, 0x12	; 18
     45e:	90 6f       	ori	r25, 0xF0	; 240
     460:	92 bb       	out	0x12, r25	; 18
	PORTD &= 0xEF;
     462:	94 98       	cbi	0x12, 4	; 18
     464:	8f e9       	ldi	r24, 0x9F	; 159
     466:	9f e0       	ldi	r25, 0x0F	; 15
     468:	01 97       	sbiw	r24, 0x01	; 1
     46a:	f1 f7       	brne	.-4      	; 0x468 <getkey+0x12>
     46c:	00 c0       	rjmp	.+0      	; 0x46e <getkey+0x18>
     46e:	00 00       	nop
	_delay_ms(1);
	key = ~PINF & 0xF0;
     470:	90 b1       	in	r25, 0x00	; 0
     472:	90 95       	com	r25
     474:	90 7f       	andi	r25, 0xF0	; 240
	if( key == 0x10 )		ret = 1;
     476:	90 31       	cpi	r25, 0x10	; 16
     478:	41 f0       	breq	.+16     	; 0x48a <getkey+0x34>
	else if( key == 0x20 )	ret = 2;
     47a:	90 32       	cpi	r25, 0x20	; 32
     47c:	41 f0       	breq	.+16     	; 0x48e <getkey+0x38>
	else if( key == 0x40 )	ret = 3;
     47e:	90 34       	cpi	r25, 0x40	; 64
     480:	41 f0       	breq	.+16     	; 0x492 <getkey+0x3c>
	else if( key == 0x80 )	ret = 4;
     482:	90 38       	cpi	r25, 0x80	; 128
     484:	41 f0       	breq	.+16     	; 0x496 <getkey+0x40>
	}
}

unsigned char getkey(unsigned char keyin)
{
	unsigned char key, ret = 0;
     486:	80 e0       	ldi	r24, 0x00	; 0
     488:	07 c0       	rjmp	.+14     	; 0x498 <getkey+0x42>
	// 1열 검사
	PORTD |= 0xF0;
	PORTD &= 0xEF;
	_delay_ms(1);
	key = ~PINF & 0xF0;
	if( key == 0x10 )		ret = 1;
     48a:	81 e0       	ldi	r24, 0x01	; 1
     48c:	05 c0       	rjmp	.+10     	; 0x498 <getkey+0x42>
	else if( key == 0x20 )	ret = 2;
     48e:	82 e0       	ldi	r24, 0x02	; 2
     490:	03 c0       	rjmp	.+6      	; 0x498 <getkey+0x42>
	else if( key == 0x40 )	ret = 3;
     492:	83 e0       	ldi	r24, 0x03	; 3
     494:	01 c0       	rjmp	.+2      	; 0x498 <getkey+0x42>
	else if( key == 0x80 )	ret = 4;
     496:	84 e0       	ldi	r24, 0x04	; 4

	// 2열 검사
	PORTD |= 0xF0;
     498:	92 b3       	in	r25, 0x12	; 18
     49a:	90 6f       	ori	r25, 0xF0	; 240
     49c:	92 bb       	out	0x12, r25	; 18
	PORTD &= 0xDF;
     49e:	95 98       	cbi	0x12, 5	; 18
     4a0:	ef e9       	ldi	r30, 0x9F	; 159
     4a2:	ff e0       	ldi	r31, 0x0F	; 15
     4a4:	31 97       	sbiw	r30, 0x01	; 1
     4a6:	f1 f7       	brne	.-4      	; 0x4a4 <getkey+0x4e>
     4a8:	00 c0       	rjmp	.+0      	; 0x4aa <getkey+0x54>
     4aa:	00 00       	nop
	_delay_ms(1);
	key = ~PINF & 0xF0;
     4ac:	90 b1       	in	r25, 0x00	; 0
     4ae:	90 95       	com	r25
     4b0:	90 7f       	andi	r25, 0xF0	; 240
	if( key == 0x10 )		ret = 5;
     4b2:	90 31       	cpi	r25, 0x10	; 16
     4b4:	39 f0       	breq	.+14     	; 0x4c4 <getkey+0x6e>
	else if( key == 0x20 )	ret = 6;
     4b6:	90 32       	cpi	r25, 0x20	; 32
     4b8:	39 f0       	breq	.+14     	; 0x4c8 <getkey+0x72>
	else if( key == 0x40 )	ret = 7;
     4ba:	90 34       	cpi	r25, 0x40	; 64
     4bc:	39 f0       	breq	.+14     	; 0x4cc <getkey+0x76>
	else if( key == 0x80 )	ret = 8;
     4be:	90 38       	cpi	r25, 0x80	; 128
     4c0:	41 f4       	brne	.+16     	; 0x4d2 <getkey+0x7c>
     4c2:	06 c0       	rjmp	.+12     	; 0x4d0 <getkey+0x7a>
	// 2열 검사
	PORTD |= 0xF0;
	PORTD &= 0xDF;
	_delay_ms(1);
	key = ~PINF & 0xF0;
	if( key == 0x10 )		ret = 5;
     4c4:	85 e0       	ldi	r24, 0x05	; 5
     4c6:	05 c0       	rjmp	.+10     	; 0x4d2 <getkey+0x7c>
	else if( key == 0x20 )	ret = 6;
     4c8:	86 e0       	ldi	r24, 0x06	; 6
     4ca:	03 c0       	rjmp	.+6      	; 0x4d2 <getkey+0x7c>
	else if( key == 0x40 )	ret = 7;
     4cc:	87 e0       	ldi	r24, 0x07	; 7
     4ce:	01 c0       	rjmp	.+2      	; 0x4d2 <getkey+0x7c>
	else if( key == 0x80 )	ret = 8;
     4d0:	88 e0       	ldi	r24, 0x08	; 8

	// 3열 검사
	PORTD |= 0xF0;
     4d2:	92 b3       	in	r25, 0x12	; 18
     4d4:	90 6f       	ori	r25, 0xF0	; 240
     4d6:	92 bb       	out	0x12, r25	; 18
	PORTD &= 0xBF;
     4d8:	96 98       	cbi	0x12, 6	; 18
     4da:	ef e9       	ldi	r30, 0x9F	; 159
     4dc:	ff e0       	ldi	r31, 0x0F	; 15
     4de:	31 97       	sbiw	r30, 0x01	; 1
     4e0:	f1 f7       	brne	.-4      	; 0x4de <getkey+0x88>
     4e2:	00 c0       	rjmp	.+0      	; 0x4e4 <getkey+0x8e>
     4e4:	00 00       	nop
	_delay_ms(1);
	key = ~PINF & 0xF0;
     4e6:	90 b1       	in	r25, 0x00	; 0
     4e8:	90 95       	com	r25
     4ea:	90 7f       	andi	r25, 0xF0	; 240
	if( key == 0x10 )		ret = 9;
     4ec:	90 31       	cpi	r25, 0x10	; 16
     4ee:	39 f0       	breq	.+14     	; 0x4fe <getkey+0xa8>
	else if( key == 0x20 )	ret = 10;
     4f0:	90 32       	cpi	r25, 0x20	; 32
     4f2:	39 f0       	breq	.+14     	; 0x502 <getkey+0xac>
	else if( key == 0x40 )	ret = 11;
     4f4:	90 34       	cpi	r25, 0x40	; 64
     4f6:	39 f0       	breq	.+14     	; 0x506 <getkey+0xb0>
	else if( key == 0x80 )	ret = 12;
     4f8:	90 38       	cpi	r25, 0x80	; 128
     4fa:	41 f4       	brne	.+16     	; 0x50c <getkey+0xb6>
     4fc:	06 c0       	rjmp	.+12     	; 0x50a <getkey+0xb4>
	// 3열 검사
	PORTD |= 0xF0;
	PORTD &= 0xBF;
	_delay_ms(1);
	key = ~PINF & 0xF0;
	if( key == 0x10 )		ret = 9;
     4fe:	89 e0       	ldi	r24, 0x09	; 9
     500:	05 c0       	rjmp	.+10     	; 0x50c <getkey+0xb6>
	else if( key == 0x20 )	ret = 10;
     502:	8a e0       	ldi	r24, 0x0A	; 10
     504:	03 c0       	rjmp	.+6      	; 0x50c <getkey+0xb6>
	else if( key == 0x40 )	ret = 11;
     506:	8b e0       	ldi	r24, 0x0B	; 11
     508:	01 c0       	rjmp	.+2      	; 0x50c <getkey+0xb6>
	else if( key == 0x80 )	ret = 12;
     50a:	8c e0       	ldi	r24, 0x0C	; 12

	// 4열 검사
	PORTD |= 0xF0;
     50c:	92 b3       	in	r25, 0x12	; 18
     50e:	90 6f       	ori	r25, 0xF0	; 240
     510:	92 bb       	out	0x12, r25	; 18
	PORTD &= 0x7F;
     512:	97 98       	cbi	0x12, 7	; 18
     514:	ef e9       	ldi	r30, 0x9F	; 159
     516:	ff e0       	ldi	r31, 0x0F	; 15
     518:	31 97       	sbiw	r30, 0x01	; 1
     51a:	f1 f7       	brne	.-4      	; 0x518 <getkey+0xc2>
     51c:	00 c0       	rjmp	.+0      	; 0x51e <getkey+0xc8>
     51e:	00 00       	nop
	_delay_ms(1);
	key = ~PINF & 0xF0;
     520:	90 b1       	in	r25, 0x00	; 0
     522:	90 95       	com	r25
     524:	90 7f       	andi	r25, 0xF0	; 240
	if( key == 0x10 )		ret = 13;
     526:	90 31       	cpi	r25, 0x10	; 16
     528:	71 f0       	breq	.+28     	; 0x546 <getkey+0xf0>
	else if( key == 0x20 )	ret = 14;
     52a:	90 32       	cpi	r25, 0x20	; 32
     52c:	71 f0       	breq	.+28     	; 0x54a <getkey+0xf4>
	else if( key == 0x40 )	ret = 15;
     52e:	90 34       	cpi	r25, 0x40	; 64
     530:	71 f0       	breq	.+28     	; 0x54e <getkey+0xf8>
	else if( key == 0x80 )	ret = 16;
     532:	90 38       	cpi	r25, 0x80	; 128
     534:	71 f0       	breq	.+28     	; 0x552 <getkey+0xfc>

	if( ret && (ret != keyin) )	keyflag = 1;
     536:	88 23       	and	r24, r24
     538:	29 f0       	breq	.+10     	; 0x544 <getkey+0xee>
     53a:	82 17       	cp	r24, r18
     53c:	19 f0       	breq	.+6      	; 0x544 <getkey+0xee>
     53e:	91 e0       	ldi	r25, 0x01	; 1
     540:	90 93 33 06 	sts	0x0633, r25

	return ret;
}
     544:	08 95       	ret
	// 4열 검사
	PORTD |= 0xF0;
	PORTD &= 0x7F;
	_delay_ms(1);
	key = ~PINF & 0xF0;
	if( key == 0x10 )		ret = 13;
     546:	8d e0       	ldi	r24, 0x0D	; 13
     548:	f8 cf       	rjmp	.-16     	; 0x53a <getkey+0xe4>
	else if( key == 0x20 )	ret = 14;
     54a:	8e e0       	ldi	r24, 0x0E	; 14
     54c:	f6 cf       	rjmp	.-20     	; 0x53a <getkey+0xe4>
	else if( key == 0x40 )	ret = 15;
     54e:	8f e0       	ldi	r24, 0x0F	; 15
     550:	f4 cf       	rjmp	.-24     	; 0x53a <getkey+0xe4>
	else if( key == 0x80 )	ret = 16;
     552:	80 e1       	ldi	r24, 0x10	; 16
     554:	f2 cf       	rjmp	.-28     	; 0x53a <getkey+0xe4>

00000556 <displayWatch>:
}

void displayWatch(void)
{
	// 시계 출력
	lcdGotoXY(0, 0);
     556:	80 e0       	ldi	r24, 0x00	; 0
     558:	60 e0       	ldi	r22, 0x00	; 0
     55a:	0e 94 61 01 	call	0x2c2	; 0x2c2 <lcdGotoXY>
	printf("   20%02d/%02d/%02d   ", year, month + 1, day + 1);
     55e:	90 91 44 06 	lds	r25, 0x0644
     562:	20 91 38 06 	lds	r18, 0x0638
     566:	80 91 46 06 	lds	r24, 0x0646
     56a:	4d b7       	in	r20, 0x3d	; 61
     56c:	5e b7       	in	r21, 0x3e	; 62
     56e:	48 50       	subi	r20, 0x08	; 8
     570:	50 40       	sbci	r21, 0x00	; 0
     572:	0f b6       	in	r0, 0x3f	; 63
     574:	f8 94       	cli
     576:	5e bf       	out	0x3e, r21	; 62
     578:	0f be       	out	0x3f, r0	; 63
     57a:	4d bf       	out	0x3d, r20	; 61
     57c:	ed b7       	in	r30, 0x3d	; 61
     57e:	fe b7       	in	r31, 0x3e	; 62
     580:	31 96       	adiw	r30, 0x01	; 1
     582:	40 e0       	ldi	r20, 0x00	; 0
     584:	51 e0       	ldi	r21, 0x01	; 1
     586:	ad b7       	in	r26, 0x3d	; 61
     588:	be b7       	in	r27, 0x3e	; 62
     58a:	12 96       	adiw	r26, 0x02	; 2
     58c:	5c 93       	st	X, r21
     58e:	4e 93       	st	-X, r20
     590:	11 97       	sbiw	r26, 0x01	; 1
     592:	92 83       	std	Z+2, r25	; 0x02
     594:	13 82       	std	Z+3, r1	; 0x03
     596:	30 e0       	ldi	r19, 0x00	; 0
     598:	2f 5f       	subi	r18, 0xFF	; 255
     59a:	3f 4f       	sbci	r19, 0xFF	; 255
     59c:	35 83       	std	Z+5, r19	; 0x05
     59e:	24 83       	std	Z+4, r18	; 0x04
     5a0:	90 e0       	ldi	r25, 0x00	; 0
     5a2:	01 96       	adiw	r24, 0x01	; 1
     5a4:	97 83       	std	Z+7, r25	; 0x07
     5a6:	86 83       	std	Z+6, r24	; 0x06
     5a8:	0e 94 44 0d 	call	0x1a88	; 0x1a88 <printf>
	lcdGotoXY(0, 1);
     5ac:	4d b7       	in	r20, 0x3d	; 61
     5ae:	5e b7       	in	r21, 0x3e	; 62
     5b0:	48 5f       	subi	r20, 0xF8	; 248
     5b2:	5f 4f       	sbci	r21, 0xFF	; 255
     5b4:	0f b6       	in	r0, 0x3f	; 63
     5b6:	f8 94       	cli
     5b8:	5e bf       	out	0x3e, r21	; 62
     5ba:	0f be       	out	0x3f, r0	; 63
     5bc:	4d bf       	out	0x3d, r20	; 61
     5be:	80 e0       	ldi	r24, 0x00	; 0
     5c0:	61 e0       	ldi	r22, 0x01	; 1
     5c2:	0e 94 61 01 	call	0x2c2	; 0x2c2 <lcdGotoXY>
	if( hour >= 1 && hour <= 12 ) {
     5c6:	80 91 42 06 	lds	r24, 0x0642
     5ca:	88 23       	and	r24, r24
     5cc:	19 f1       	breq	.+70     	; 0x614 <displayWatch+0xbe>
     5ce:	80 91 42 06 	lds	r24, 0x0642
     5d2:	8d 30       	cpi	r24, 0x0D	; 13
     5d4:	f8 f4       	brcc	.+62     	; 0x614 <displayWatch+0xbe>
		printf("   AM %02d:%02d:%02d  ", hour, min, sec);
     5d6:	40 91 42 06 	lds	r20, 0x0642
     5da:	30 91 43 06 	lds	r19, 0x0643
     5de:	20 91 45 06 	lds	r18, 0x0645
     5e2:	8d b7       	in	r24, 0x3d	; 61
     5e4:	9e b7       	in	r25, 0x3e	; 62
     5e6:	08 97       	sbiw	r24, 0x08	; 8
     5e8:	0f b6       	in	r0, 0x3f	; 63
     5ea:	f8 94       	cli
     5ec:	9e bf       	out	0x3e, r25	; 62
     5ee:	0f be       	out	0x3f, r0	; 63
     5f0:	8d bf       	out	0x3d, r24	; 61
     5f2:	ed b7       	in	r30, 0x3d	; 61
     5f4:	fe b7       	in	r31, 0x3e	; 62
     5f6:	31 96       	adiw	r30, 0x01	; 1
     5f8:	87 e1       	ldi	r24, 0x17	; 23
     5fa:	91 e0       	ldi	r25, 0x01	; 1
     5fc:	ad b7       	in	r26, 0x3d	; 61
     5fe:	be b7       	in	r27, 0x3e	; 62
     600:	12 96       	adiw	r26, 0x02	; 2
     602:	9c 93       	st	X, r25
     604:	8e 93       	st	-X, r24
     606:	11 97       	sbiw	r26, 0x01	; 1
     608:	42 83       	std	Z+2, r20	; 0x02
     60a:	13 82       	std	Z+3, r1	; 0x03
     60c:	34 83       	std	Z+4, r19	; 0x04
     60e:	15 82       	std	Z+5, r1	; 0x05
     610:	26 83       	std	Z+6, r18	; 0x06
     612:	25 c0       	rjmp	.+74     	; 0x65e <displayWatch+0x108>
	}
	else {
		char hour1 = hour % 12;
     614:	80 91 42 06 	lds	r24, 0x0642
     618:	6c e0       	ldi	r22, 0x0C	; 12
     61a:	0e 94 ad 0b 	call	0x175a	; 0x175a <__udivmodqi4>
     61e:	29 2f       	mov	r18, r25
		if( hour1 == 0 )	hour1 = 12;
     620:	99 23       	and	r25, r25
     622:	09 f4       	brne	.+2      	; 0x626 <displayWatch+0xd0>
     624:	2c e0       	ldi	r18, 0x0C	; 12
		printf("   PM %02d:%02d:%02d", hour1, min, sec);
     626:	40 91 43 06 	lds	r20, 0x0643
     62a:	30 91 45 06 	lds	r19, 0x0645
     62e:	8d b7       	in	r24, 0x3d	; 61
     630:	9e b7       	in	r25, 0x3e	; 62
     632:	08 97       	sbiw	r24, 0x08	; 8
     634:	0f b6       	in	r0, 0x3f	; 63
     636:	f8 94       	cli
     638:	9e bf       	out	0x3e, r25	; 62
     63a:	0f be       	out	0x3f, r0	; 63
     63c:	8d bf       	out	0x3d, r24	; 61
     63e:	ed b7       	in	r30, 0x3d	; 61
     640:	fe b7       	in	r31, 0x3e	; 62
     642:	31 96       	adiw	r30, 0x01	; 1
     644:	8e e2       	ldi	r24, 0x2E	; 46
     646:	91 e0       	ldi	r25, 0x01	; 1
     648:	ad b7       	in	r26, 0x3d	; 61
     64a:	be b7       	in	r27, 0x3e	; 62
     64c:	12 96       	adiw	r26, 0x02	; 2
     64e:	9c 93       	st	X, r25
     650:	8e 93       	st	-X, r24
     652:	11 97       	sbiw	r26, 0x01	; 1
     654:	22 83       	std	Z+2, r18	; 0x02
     656:	13 82       	std	Z+3, r1	; 0x03
     658:	44 83       	std	Z+4, r20	; 0x04
     65a:	15 82       	std	Z+5, r1	; 0x05
     65c:	36 83       	std	Z+6, r19	; 0x06
     65e:	17 82       	std	Z+7, r1	; 0x07
     660:	0e 94 44 0d 	call	0x1a88	; 0x1a88 <printf>
     664:	4d b7       	in	r20, 0x3d	; 61
     666:	5e b7       	in	r21, 0x3e	; 62
     668:	48 5f       	subi	r20, 0xF8	; 248
     66a:	5f 4f       	sbci	r21, 0xFF	; 255
     66c:	0f b6       	in	r0, 0x3f	; 63
     66e:	f8 94       	cli
     670:	5e bf       	out	0x3e, r21	; 62
     672:	0f be       	out	0x3f, r0	; 63
     674:	4d bf       	out	0x3d, r20	; 61
     676:	08 95       	ret

00000678 <dotMatrix>:
// 8개중 1개의 Line에 적색 및 녹색 8비트 데이타 출력
void dotMatrix(char line, unsigned char red, unsigned char green)
{
	unsigned char data;

	DOTMATRIX = 0;	// 도트매트릭스의 모든 핀 disable
     678:	10 92 00 90 	sts	0x9000, r1

	for( int i = 0; i < 8; i++ ) {
		data = line << 4;
     67c:	82 95       	swap	r24
     67e:	80 7f       	andi	r24, 0xF0	; 240
		// 적색
		if( red & 0x80 )	data |= 0x01;
     680:	58 2f       	mov	r21, r24
     682:	51 60       	ori	r21, 0x01	; 1
     684:	28 e0       	ldi	r18, 0x08	; 8
     686:	30 e0       	ldi	r19, 0x00	; 0
     688:	67 fd       	sbrc	r22, 7
     68a:	02 c0       	rjmp	.+4      	; 0x690 <dotMatrix+0x18>
	unsigned char data;

	DOTMATRIX = 0;	// 도트매트릭스의 모든 핀 disable

	for( int i = 0; i < 8; i++ ) {
		data = line << 4;
     68c:	98 2f       	mov	r25, r24
     68e:	01 c0       	rjmp	.+2      	; 0x692 <dotMatrix+0x1a>
		// 적색
		if( red & 0x80 )	data |= 0x01;
     690:	95 2f       	mov	r25, r21
		// 녹색
		if( green & 0x80 )	data |= 0x02;
     692:	47 fd       	sbrc	r20, 7
     694:	92 60       	ori	r25, 0x02	; 2

		DOTMATRIX = data;
     696:	90 93 00 90 	sts	0x9000, r25
		data |= 0x04;
     69a:	94 60       	ori	r25, 0x04	; 4
		DOTMATRIX = data;
     69c:	90 93 00 90 	sts	0x9000, r25
		data &= ~0x04;
     6a0:	9b 7f       	andi	r25, 0xFB	; 251
		DOTMATRIX = data;
     6a2:	90 93 00 90 	sts	0x9000, r25

		red <<= 1;
     6a6:	66 0f       	add	r22, r22
		green <<= 1;
     6a8:	44 0f       	add	r20, r20
     6aa:	21 50       	subi	r18, 0x01	; 1
     6ac:	30 40       	sbci	r19, 0x00	; 0
{
	unsigned char data;

	DOTMATRIX = 0;	// 도트매트릭스의 모든 핀 disable

	for( int i = 0; i < 8; i++ ) {
     6ae:	61 f7       	brne	.-40     	; 0x688 <dotMatrix+0x10>
		DOTMATRIX = data;

		red <<= 1;
		green <<= 1;
	}
	data |= 0x88;
     6b0:	98 68       	ori	r25, 0x88	; 136
	DOTMATRIX = data;
     6b2:	90 93 00 90 	sts	0x9000, r25
	data &= ~0x08;
     6b6:	97 7f       	andi	r25, 0xF7	; 247
	DOTMATRIX = data;
     6b8:	90 93 00 90 	sts	0x9000, r25
}
     6bc:	08 95       	ret

000006be <__vector_16>:
}

// Timer0 Overflow Interrupt Handler
// 1ms Timer
ISR(TIMER0_OVF_vect)
{
     6be:	1f 92       	push	r1
     6c0:	0f 92       	push	r0
     6c2:	0f b6       	in	r0, 0x3f	; 63
     6c4:	0f 92       	push	r0
     6c6:	0b b6       	in	r0, 0x3b	; 59
     6c8:	0f 92       	push	r0
     6ca:	11 24       	eor	r1, r1
     6cc:	2f 93       	push	r18
     6ce:	3f 93       	push	r19
     6d0:	4f 93       	push	r20
     6d2:	5f 93       	push	r21
     6d4:	6f 93       	push	r22
     6d6:	7f 93       	push	r23
     6d8:	8f 93       	push	r24
     6da:	9f 93       	push	r25
     6dc:	af 93       	push	r26
     6de:	bf 93       	push	r27
     6e0:	cf 93       	push	r28
     6e2:	df 93       	push	r29
     6e4:	ef 93       	push	r30
     6e6:	ff 93       	push	r31
	TCNT0 = 256 - 125;
     6e8:	83 e8       	ldi	r24, 0x83	; 131
     6ea:	82 bf       	out	0x32, r24	; 50

	tick0++;
     6ec:	80 91 3a 06 	lds	r24, 0x063A
     6f0:	90 91 3b 06 	lds	r25, 0x063B
     6f4:	01 96       	adiw	r24, 0x01	; 1
     6f6:	90 93 3b 06 	sts	0x063B, r25
     6fa:	80 93 3a 06 	sts	0x063A, r24

	LED_SEL1 = sign[count];
     6fe:	e0 91 32 06 	lds	r30, 0x0632
     702:	f0 e0       	ldi	r31, 0x00	; 0
     704:	ee 56       	subi	r30, 0x6E	; 110
     706:	fa 4f       	sbci	r31, 0xFA	; 250
     708:	80 81       	ld	r24, Z
     70a:	80 93 00 a0 	sts	0xA000, r24
	LED_SEL2 = sign[count + 1];
     70e:	e0 91 32 06 	lds	r30, 0x0632
     712:	f0 e0       	ldi	r31, 0x00	; 0
     714:	ee 56       	subi	r30, 0x6E	; 110
     716:	fa 4f       	sbci	r31, 0xFA	; 250
     718:	81 81       	ldd	r24, Z+1	; 0x01
     71a:	80 93 00 b0 	sts	0xB000, r24

	segment[0] = tick0 / 10000;
     71e:	80 91 3a 06 	lds	r24, 0x063A
     722:	90 91 3b 06 	lds	r25, 0x063B
     726:	20 e1       	ldi	r18, 0x10	; 16
     728:	37 e2       	ldi	r19, 0x27	; 39
     72a:	b9 01       	movw	r22, r18
     72c:	0e 94 b9 0b 	call	0x1772	; 0x1772 <__udivmodhi4>
     730:	60 93 3c 06 	sts	0x063C, r22
	segment[1] = tick0 % 10000 / 1000;
     734:	80 91 3a 06 	lds	r24, 0x063A
     738:	90 91 3b 06 	lds	r25, 0x063B
     73c:	b9 01       	movw	r22, r18
     73e:	0e 94 b9 0b 	call	0x1772	; 0x1772 <__udivmodhi4>
     742:	28 ee       	ldi	r18, 0xE8	; 232
     744:	33 e0       	ldi	r19, 0x03	; 3
     746:	b9 01       	movw	r22, r18
     748:	0e 94 b9 0b 	call	0x1772	; 0x1772 <__udivmodhi4>
     74c:	60 93 3d 06 	sts	0x063D, r22
	segment[2] = 0x0F;
     750:	8f e0       	ldi	r24, 0x0F	; 15
     752:	80 93 3e 06 	sts	0x063E, r24
	segment[3] = 0x0F;
     756:	80 93 3f 06 	sts	0x063F, r24
	if( count == 0 ) {
     75a:	80 91 32 06 	lds	r24, 0x0632
     75e:	88 23       	and	r24, r24
     760:	11 f5       	brne	.+68     	; 0x7a6 <__vector_16+0xe8>
		segment[4] = (25 - (tick0 / 1000)) / 10;
     762:	80 91 3a 06 	lds	r24, 0x063A
     766:	90 91 3b 06 	lds	r25, 0x063B
     76a:	b9 01       	movw	r22, r18
     76c:	0e 94 b9 0b 	call	0x1772	; 0x1772 <__udivmodhi4>
     770:	c9 e1       	ldi	r28, 0x19	; 25
     772:	d0 e0       	ldi	r29, 0x00	; 0
     774:	ce 01       	movw	r24, r28
     776:	86 1b       	sub	r24, r22
     778:	97 0b       	sbc	r25, r23
     77a:	ea e0       	ldi	r30, 0x0A	; 10
     77c:	f0 e0       	ldi	r31, 0x00	; 0
     77e:	bf 01       	movw	r22, r30
     780:	0e 94 b9 0b 	call	0x1772	; 0x1772 <__udivmodhi4>
     784:	60 93 40 06 	sts	0x0640, r22
		segment[5] = (25 - (tick0 / 1000)) % 10;
     788:	80 91 3a 06 	lds	r24, 0x063A
     78c:	90 91 3b 06 	lds	r25, 0x063B
     790:	b9 01       	movw	r22, r18
     792:	0e 94 b9 0b 	call	0x1772	; 0x1772 <__udivmodhi4>
     796:	ce 01       	movw	r24, r28
     798:	86 1b       	sub	r24, r22
     79a:	97 0b       	sbc	r25, r23
     79c:	bf 01       	movw	r22, r30
     79e:	0e 94 b9 0b 	call	0x1772	; 0x1772 <__udivmodhi4>
     7a2:	80 93 41 06 	sts	0x0641, r24
	}
	FND = (segment[digit] << 3) | digit;
     7a6:	e0 91 35 06 	lds	r30, 0x0635
     7aa:	f0 e0       	ldi	r31, 0x00	; 0
     7ac:	e4 5c       	subi	r30, 0xC4	; 196
     7ae:	f9 4f       	sbci	r31, 0xF9	; 249
     7b0:	80 81       	ld	r24, Z
     7b2:	90 91 35 06 	lds	r25, 0x0635
     7b6:	88 0f       	add	r24, r24
     7b8:	88 0f       	add	r24, r24
     7ba:	88 0f       	add	r24, r24
     7bc:	89 2b       	or	r24, r25
     7be:	80 93 00 80 	sts	0x8000, r24
	digit = ++digit % 6;
     7c2:	80 91 35 06 	lds	r24, 0x0635
     7c6:	8f 5f       	subi	r24, 0xFF	; 255
     7c8:	80 93 35 06 	sts	0x0635, r24
     7cc:	66 e0       	ldi	r22, 0x06	; 6
     7ce:	0e 94 ad 0b 	call	0x175a	; 0x175a <__udivmodqi4>
     7d2:	90 93 35 06 	sts	0x0635, r25

	if( count == 0 ) {
     7d6:	80 91 32 06 	lds	r24, 0x0632
     7da:	88 23       	and	r24, r24
     7dc:	71 f4       	brne	.+28     	; 0x7fa <__vector_16+0x13c>
		if( tick0 == 25000 )	count += 2;
     7de:	80 91 3a 06 	lds	r24, 0x063A
     7e2:	90 91 3b 06 	lds	r25, 0x063B
     7e6:	21 e6       	ldi	r18, 0x61	; 97
     7e8:	88 3a       	cpi	r24, 0xA8	; 168
     7ea:	92 07       	cpc	r25, r18
     7ec:	c1 f5       	brne	.+112    	; 0x85e <__vector_16+0x1a0>
     7ee:	80 91 32 06 	lds	r24, 0x0632
     7f2:	8e 5f       	subi	r24, 0xFE	; 254
     7f4:	80 93 32 06 	sts	0x0632, r24
     7f8:	32 c0       	rjmp	.+100    	; 0x85e <__vector_16+0x1a0>
	}
	else if( count == 2 ) {
     7fa:	80 91 32 06 	lds	r24, 0x0632
     7fe:	82 30       	cpi	r24, 0x02	; 2
     800:	e9 f0       	breq	.+58     	; 0x83c <__vector_16+0x17e>
		if( tick0 == 45000 ) {
			count += 2;
			tick0 = 0;
		}
	}
	else if( (count == 4) || (count == 8) ) {
     802:	80 91 32 06 	lds	r24, 0x0632
     806:	84 30       	cpi	r24, 0x04	; 4
     808:	21 f0       	breq	.+8      	; 0x812 <__vector_16+0x154>
     80a:	80 91 32 06 	lds	r24, 0x0632
     80e:	88 30       	cpi	r24, 0x08	; 8
     810:	89 f4       	brne	.+34     	; 0x834 <__vector_16+0x176>
		if( tick0 == 3000 ) {
     812:	80 91 3a 06 	lds	r24, 0x063A
     816:	90 91 3b 06 	lds	r25, 0x063B
     81a:	2b e0       	ldi	r18, 0x0B	; 11
     81c:	88 3b       	cpi	r24, 0xB8	; 184
     81e:	92 07       	cpc	r25, r18
     820:	f1 f4       	brne	.+60     	; 0x85e <__vector_16+0x1a0>
			count = (count + 2) % 10;
     822:	80 91 32 06 	lds	r24, 0x0632
     826:	90 e0       	ldi	r25, 0x00	; 0
     828:	02 96       	adiw	r24, 0x02	; 2
     82a:	6a e0       	ldi	r22, 0x0A	; 10
     82c:	70 e0       	ldi	r23, 0x00	; 0
     82e:	0e 94 cd 0b 	call	0x179a	; 0x179a <__divmodhi4>
     832:	0f c0       	rjmp	.+30     	; 0x852 <__vector_16+0x194>
			tick0 = 0;
		}
	}
	else if( count == 6 ) {
     834:	80 91 32 06 	lds	r24, 0x0632
     838:	86 30       	cpi	r24, 0x06	; 6
     83a:	89 f4       	brne	.+34     	; 0x85e <__vector_16+0x1a0>
		if( tick0 == 45000 ) {
     83c:	80 91 3a 06 	lds	r24, 0x063A
     840:	90 91 3b 06 	lds	r25, 0x063B
     844:	2f ea       	ldi	r18, 0xAF	; 175
     846:	88 3c       	cpi	r24, 0xC8	; 200
     848:	92 07       	cpc	r25, r18
     84a:	49 f4       	brne	.+18     	; 0x85e <__vector_16+0x1a0>
			count += 2;
     84c:	80 91 32 06 	lds	r24, 0x0632
     850:	8e 5f       	subi	r24, 0xFE	; 254
     852:	80 93 32 06 	sts	0x0632, r24
			tick0 = 0;
     856:	10 92 3b 06 	sts	0x063B, r1
     85a:	10 92 3a 06 	sts	0x063A, r1
		}
	}

	if( count == 0 )	dotMatrix(dig, redBuf[dig], 0x00);
     85e:	80 91 32 06 	lds	r24, 0x0632
     862:	88 23       	and	r24, r24
     864:	51 f4       	brne	.+20     	; 0x87a <__vector_16+0x1bc>
     866:	80 91 36 06 	lds	r24, 0x0636
     86a:	e0 91 36 06 	lds	r30, 0x0636
     86e:	f0 e0       	ldi	r31, 0x00	; 0
     870:	e2 58       	subi	r30, 0x82	; 130
     872:	fa 4f       	sbci	r31, 0xFA	; 250
     874:	60 81       	ld	r22, Z
     876:	40 e0       	ldi	r20, 0x00	; 0
     878:	21 c0       	rjmp	.+66     	; 0x8bc <__vector_16+0x1fe>
	else if( count == 2 || count == 4 )	dotMatrix(dig, 0x00, greenBuf2[dig]);
     87a:	80 91 32 06 	lds	r24, 0x0632
     87e:	82 30       	cpi	r24, 0x02	; 2
     880:	21 f0       	breq	.+8      	; 0x88a <__vector_16+0x1cc>
     882:	80 91 32 06 	lds	r24, 0x0632
     886:	84 30       	cpi	r24, 0x04	; 4
     888:	41 f4       	brne	.+16     	; 0x89a <__vector_16+0x1dc>
     88a:	80 91 36 06 	lds	r24, 0x0636
     88e:	e0 91 36 06 	lds	r30, 0x0636
     892:	f0 e0       	ldi	r31, 0x00	; 0
     894:	ea 59       	subi	r30, 0x9A	; 154
     896:	fa 4f       	sbci	r31, 0xFA	; 250
     898:	0f c0       	rjmp	.+30     	; 0x8b8 <__vector_16+0x1fa>
	else if( count == 6 || count == 8 )	dotMatrix(dig, 0x00, greenBuf1[dig]);
     89a:	80 91 32 06 	lds	r24, 0x0632
     89e:	86 30       	cpi	r24, 0x06	; 6
     8a0:	21 f0       	breq	.+8      	; 0x8aa <__vector_16+0x1ec>
     8a2:	80 91 32 06 	lds	r24, 0x0632
     8a6:	88 30       	cpi	r24, 0x08	; 8
     8a8:	59 f4       	brne	.+22     	; 0x8c0 <__vector_16+0x202>
     8aa:	80 91 36 06 	lds	r24, 0x0636
     8ae:	e0 91 36 06 	lds	r30, 0x0636
     8b2:	f0 e0       	ldi	r31, 0x00	; 0
     8b4:	e2 59       	subi	r30, 0x92	; 146
     8b6:	fa 4f       	sbci	r31, 0xFA	; 250
     8b8:	40 81       	ld	r20, Z
     8ba:	60 e0       	ldi	r22, 0x00	; 0
     8bc:	0e 94 3c 03 	call	0x678	; 0x678 <dotMatrix>
	dig = ++dig % 8;
     8c0:	80 91 36 06 	lds	r24, 0x0636
     8c4:	8f 5f       	subi	r24, 0xFF	; 255
     8c6:	80 93 36 06 	sts	0x0636, r24
     8ca:	87 70       	andi	r24, 0x07	; 7
     8cc:	80 93 36 06 	sts	0x0636, r24
}
     8d0:	ff 91       	pop	r31
     8d2:	ef 91       	pop	r30
     8d4:	df 91       	pop	r29
     8d6:	cf 91       	pop	r28
     8d8:	bf 91       	pop	r27
     8da:	af 91       	pop	r26
     8dc:	9f 91       	pop	r25
     8de:	8f 91       	pop	r24
     8e0:	7f 91       	pop	r23
     8e2:	6f 91       	pop	r22
     8e4:	5f 91       	pop	r21
     8e6:	4f 91       	pop	r20
     8e8:	3f 91       	pop	r19
     8ea:	2f 91       	pop	r18
     8ec:	0f 90       	pop	r0
     8ee:	0b be       	out	0x3b, r0	; 59
     8f0:	0f 90       	pop	r0
     8f2:	0f be       	out	0x3f, r0	; 63
     8f4:	0f 90       	pop	r0
     8f6:	1f 90       	pop	r1
     8f8:	18 95       	reti

000008fa <glcdReadCommand>:
	DOTMATRIX = data;
}

unsigned char glcdReadCommand(void)
{
	return GLCD_CMD;
     8fa:	80 91 00 d0 	lds	r24, 0xD000
}
     8fe:	08 95       	ret

00000900 <glcdReadData>:

unsigned char glcdReadData(void)
{
	return GLCD_DATA;
     900:	80 91 01 d0 	lds	r24, 0xD001
}
     904:	08 95       	ret

00000906 <glcdWriteCommand>:
	DOTMATRIX = data;
}

unsigned char glcdReadCommand(void)
{
	return GLCD_CMD;
     906:	90 91 00 d0 	lds	r25, 0xD000
	return GLCD_DATA;
}

void glcdWriteCommand(unsigned char cmd)
{
	while( glcdReadCommand() & 0x80 );
     90a:	97 fd       	sbrc	r25, 7
     90c:	fc cf       	rjmp	.-8      	; 0x906 <glcdWriteCommand>

	GLCD_CMD = cmd;
     90e:	80 93 00 d0 	sts	0xD000, r24
}
     912:	08 95       	ret

00000914 <glcdWriteData>:
	DOTMATRIX = data;
}

unsigned char glcdReadCommand(void)
{
	return GLCD_CMD;
     914:	90 91 00 d0 	lds	r25, 0xD000
	GLCD_CMD = cmd;
}

void glcdWriteData(unsigned char data)
{
	while( glcdReadCommand() & 0x80 );
     918:	97 fd       	sbrc	r25, 7
     91a:	fc cf       	rjmp	.-8      	; 0x914 <glcdWriteData>

	GLCD_DATA = data;
     91c:	80 93 01 d0 	sts	0xD001, r24
}
     920:	08 95       	ret

00000922 <glcdBacklight>:

void glcdBacklight(char mode)
{
	if( mode == 0 ) {
     922:	88 23       	and	r24, r24
     924:	11 f4       	brne	.+4      	; 0x92a <glcdBacklight+0x8>
		// Backlight Off
		PORTE |= 0x08;
     926:	1b 9a       	sbi	0x03, 3	; 3
     928:	08 95       	ret
	}
	else {
		// Backlight On
		PORTE &= ~0x08;
     92a:	1b 98       	cbi	0x03, 3	; 3
     92c:	08 95       	ret

0000092e <glcdGotoXY>:
	}
}

void glcdGotoXY(unsigned char x, unsigned char y)
{
     92e:	cf 93       	push	r28
     930:	c8 2f       	mov	r28, r24
	glcdWriteCommand(0xB0 | (7 - y));
     932:	87 e0       	ldi	r24, 0x07	; 7
     934:	86 1b       	sub	r24, r22
     936:	80 6b       	ori	r24, 0xB0	; 176
     938:	0e 94 83 04 	call	0x906	; 0x906 <glcdWriteCommand>
	glcdWriteCommand(0x10 | x >> 4);
     93c:	8c 2f       	mov	r24, r28
     93e:	82 95       	swap	r24
     940:	8f 70       	andi	r24, 0x0F	; 15
     942:	80 61       	ori	r24, 0x10	; 16
     944:	0e 94 83 04 	call	0x906	; 0x906 <glcdWriteCommand>
	glcdWriteCommand(0x00 | (x & 0x0f));
     948:	8c 2f       	mov	r24, r28
     94a:	8f 70       	andi	r24, 0x0F	; 15
     94c:	0e 94 83 04 	call	0x906	; 0x906 <glcdWriteCommand>
}
     950:	cf 91       	pop	r28
     952:	08 95       	ret

00000954 <glcdClear>:

void glcdClear(void)
{
     954:	cf 93       	push	r28
     956:	df 93       	push	r29

	unsigned char x, y, i;

	for( y = 0; y < 8; y++){
     958:	c0 e0       	ldi	r28, 0x00	; 0
		glcdGotoXY(0, y);
     95a:	80 e0       	ldi	r24, 0x00	; 0
     95c:	6c 2f       	mov	r22, r28
     95e:	0e 94 97 04 	call	0x92e	; 0x92e <glcdGotoXY>

		for(x = 0; x < 128; x++){
     962:	d0 e0       	ldi	r29, 0x00	; 0
			glcdWriteData(0x00);
     964:	80 e0       	ldi	r24, 0x00	; 0
     966:	0e 94 8a 04 	call	0x914	; 0x914 <glcdWriteData>
	unsigned char x, y, i;

	for( y = 0; y < 8; y++){
		glcdGotoXY(0, y);

		for(x = 0; x < 128; x++){
     96a:	df 5f       	subi	r29, 0xFF	; 255
     96c:	d0 38       	cpi	r29, 0x80	; 128
     96e:	d1 f7       	brne	.-12     	; 0x964 <glcdClear+0x10>
void glcdClear(void)
{

	unsigned char x, y, i;

	for( y = 0; y < 8; y++){
     970:	cf 5f       	subi	r28, 0xFF	; 255
     972:	c8 30       	cpi	r28, 0x08	; 8
     974:	91 f7       	brne	.-28     	; 0x95a <glcdClear+0x6>
		for(x = 0; x < 128; x++){
			glcdWriteData(0x00);
		}
	}
	
}
     976:	df 91       	pop	r29
     978:	cf 91       	pop	r28
     97a:	08 95       	ret

0000097c <glcdInit>:

void glcdInit(void)
{
	DDRE |= 0x08;
     97c:	13 9a       	sbi	0x02, 3	; 2

	glcdBacklight(1);	// Back Light ON
     97e:	81 e0       	ldi	r24, 0x01	; 1
     980:	0e 94 91 04 	call	0x922	; 0x922 <glcdBacklight>
     984:	8f ef       	ldi	r24, 0xFF	; 255
     986:	99 e6       	ldi	r25, 0x69	; 105
     988:	a8 e1       	ldi	r26, 0x18	; 24
     98a:	81 50       	subi	r24, 0x01	; 1
     98c:	90 40       	sbci	r25, 0x00	; 0
     98e:	a0 40       	sbci	r26, 0x00	; 0
     990:	e1 f7       	brne	.-8      	; 0x98a <glcdInit+0xe>
     992:	00 c0       	rjmp	.+0      	; 0x994 <glcdInit+0x18>
     994:	00 00       	nop

	_delay_ms(500);
	glcdWriteCommand(0xAB);		//New
     996:	8b ea       	ldi	r24, 0xAB	; 171
     998:	0e 94 83 04 	call	0x906	; 0x906 <glcdWriteCommand>
	glcdWriteCommand(0xAF);		//Display on
     99c:	8f ea       	ldi	r24, 0xAF	; 175
     99e:	0e 94 83 04 	call	0x906	; 0x906 <glcdWriteCommand>
	glcdWriteCommand(0x40);		//Start line 0
     9a2:	80 e4       	ldi	r24, 0x40	; 64
     9a4:	0e 94 83 04 	call	0x906	; 0x906 <glcdWriteCommand>
	glcdWriteCommand(0xB0);		//Page address set 0
     9a8:	80 eb       	ldi	r24, 0xB0	; 176
     9aa:	0e 94 83 04 	call	0x906	; 0x906 <glcdWriteCommand>
	glcdWriteCommand(0x10);		//Column address H 0
     9ae:	80 e1       	ldi	r24, 0x10	; 16
     9b0:	0e 94 83 04 	call	0x906	; 0x906 <glcdWriteCommand>
	glcdWriteCommand(0x00);		//Column address L 0
     9b4:	80 e0       	ldi	r24, 0x00	; 0
     9b6:	0e 94 83 04 	call	0x906	; 0x906 <glcdWriteCommand>
	glcdWriteCommand(0xC0);		//Common output mode select = Normal
     9ba:	80 ec       	ldi	r24, 0xC0	; 192
     9bc:	0e 94 83 04 	call	0x906	; 0x906 <glcdWriteCommand>
	glcdWriteCommand(0xA6);		//Normal display
     9c0:	86 ea       	ldi	r24, 0xA6	; 166
     9c2:	0e 94 83 04 	call	0x906	; 0x906 <glcdWriteCommand>
	glcdWriteCommand(0xA0);		//ADC set = Normal
     9c6:	80 ea       	ldi	r24, 0xA0	; 160
     9c8:	0e 94 83 04 	call	0x906	; 0x906 <glcdWriteCommand>
	glcdWriteCommand(0xA4);		//Display all point off
     9cc:	84 ea       	ldi	r24, 0xA4	; 164
     9ce:	0e 94 83 04 	call	0x906	; 0x906 <glcdWriteCommand>
	glcdWriteCommand(0xA3);		//LCD bias 1/9
     9d2:	83 ea       	ldi	r24, 0xA3	; 163
     9d4:	0e 94 83 04 	call	0x906	; 0x906 <glcdWriteCommand>
	glcdWriteCommand(0x2F);		//Power control all on
     9d8:	8f e2       	ldi	r24, 0x2F	; 47
     9da:	0e 94 83 04 	call	0x906	; 0x906 <glcdWriteCommand>
	glcdWriteCommand(0x21);		//Rab ratio 26
     9de:	81 e2       	ldi	r24, 0x21	; 33
     9e0:	0e 94 83 04 	call	0x906	; 0x906 <glcdWriteCommand>
	glcdWriteCommand(0x81);		//E-Vol setting
     9e4:	81 e8       	ldi	r24, 0x81	; 129
     9e6:	0e 94 83 04 	call	0x906	; 0x906 <glcdWriteCommand>
	glcdWriteCommand(0x1f);		//Contrast Level
     9ea:	8f e1       	ldi	r24, 0x1F	; 31
     9ec:	0e 94 83 04 	call	0x906	; 0x906 <glcdWriteCommand>
}
     9f0:	08 95       	ret

000009f2 <main>:
{
	unsigned char key, dayflag = 0, watchflag = 0, tempflag = 0;
	unsigned int adc_buffer;

	// 외부메모리 설정
	MCUCR = 0x80;
     9f2:	80 e8       	ldi	r24, 0x80	; 128
     9f4:	85 bf       	out	0x35, r24	; 53
	XMCRA = 0x4A;
     9f6:	8a e4       	ldi	r24, 0x4A	; 74
     9f8:	80 93 6d 00 	sts	0x006D, r24

	// 외부인터럽트 4 폴링엣지
	EICRA = 0x00;
     9fc:	10 92 6a 00 	sts	0x006A, r1
	EICRB = 0x02;
     a00:	22 e0       	ldi	r18, 0x02	; 2
     a02:	2a bf       	out	0x3a, r18	; 58
	EIMSK = 0x10;
     a04:	80 e1       	ldi	r24, 0x10	; 16
     a06:	89 bf       	out	0x39, r24	; 57

	// Timer0 초기화
	TCCR0 = 0x05;		// 128분주 : 16MHz / 128 = 125KHz(8us)
     a08:	85 e0       	ldi	r24, 0x05	; 5
     a0a:	83 bf       	out	0x33, r24	; 51
	TCNT0 = 256 - 125;	// 8us * 125 = 1ms, 타이머인터럽트 발생 주기
     a0c:	83 e8       	ldi	r24, 0x83	; 131
     a0e:	82 bf       	out	0x32, r24	; 50
	TIMSK = 0x01;		// Timer0 오버플로우 인터럽트 인에이블
     a10:	81 e0       	ldi	r24, 0x01	; 1
     a12:	87 bf       	out	0x37, r24	; 55

	// OC2(PB7) output
	DDRB |= 0x60;  //0x80
     a14:	87 b3       	in	r24, 0x17	; 23
     a16:	80 66       	ori	r24, 0x60	; 96
     a18:	87 bb       	out	0x17, r24	; 23

	// Timer2 : Fast PWM mode, 256분주
	TCCR2 = 0x7C;
     a1a:	8c e7       	ldi	r24, 0x7C	; 124
     a1c:	85 bd       	out	0x25, r24	; 37
	TCNT2 = 0;
     a1e:	14 bc       	out	0x24, r1	; 36
	OCR2 = 0;
     a20:	13 bc       	out	0x23, r1	; 35

	// Timer3 초기화
	TCCR3B = 0x03;			// 64분주 : 16MHz / 64 = 250KHz(4us)
     a22:	83 e0       	ldi	r24, 0x03	; 3
     a24:	80 93 8a 00 	sts	0x008A, r24
	TCNT3 = 65536 - 50000;	// 4us * 50000 = 0.2sec
     a28:	80 eb       	ldi	r24, 0xB0	; 176
     a2a:	9c e3       	ldi	r25, 0x3C	; 60
     a2c:	90 93 89 00 	sts	0x0089, r25
     a30:	80 93 88 00 	sts	0x0088, r24
	ETIMSK = 0x04;			// 오버플로우 인터럽트 인에이블
     a34:	84 e0       	ldi	r24, 0x04	; 4
     a36:	80 93 7d 00 	sts	0x007D, r24

	sei();
     a3a:	78 94       	sei

	// ADC 초기화
	ADMUX = 2;			// 2번 채널
     a3c:	27 b9       	out	0x07, r18	; 7
	ADMUX |= 0x40;		// 기준 전압을 AVCC로, 좌측정렬
     a3e:	3e 9a       	sbi	0x07, 6	; 7
	ADCSR = 0x86;		// ADC 인에이블, 64분주
     a40:	86 e8       	ldi	r24, 0x86	; 134
     a42:	86 b9       	out	0x06, r24	; 6

	DDRD |= 0xF0;
     a44:	81 b3       	in	r24, 0x11	; 17
     a46:	80 6f       	ori	r24, 0xF0	; 240
     a48:	81 bb       	out	0x11, r24	; 17
	DDRF &= 0x0F;
     a4a:	80 91 61 00 	lds	r24, 0x0061
     a4e:	8f 70       	andi	r24, 0x0F	; 15
     a50:	80 93 61 00 	sts	0x0061, r24

	lcdInit();
     a54:	0e 94 07 01 	call	0x20e	; 0x20e <lcdInit>
	glcdInit();
     a58:	0e 94 be 04 	call	0x97c	; 0x97c <glcdInit>
	glcdClear();
     a5c:	0e 94 aa 04 	call	0x954	; 0x954 <glcdClear>
     a60:	d8 e0       	ldi	r29, 0x08	; 8
     a62:	ed 2e       	mov	r14, r29
     a64:	f1 2c       	mov	r15, r1
     a66:	15 c0       	rjmp	.+42     	; 0xa92 <main+0xa0>
	
	for(int i =0 ; i<8 ; i++)
	{
		for(int j=0 ; j<8 ; j++)
		{
		glcdGotoXY(j, 0);
     a68:	80 2f       	mov	r24, r16
     a6a:	60 e0       	ldi	r22, 0x00	; 0
     a6c:	0e 94 97 04 	call	0x92e	; 0x92e <glcdGotoXY>
		glcdWriteData(english[0][j+1]);
     a70:	0f 5f       	subi	r16, 0xFF	; 255
     a72:	1f 4f       	sbci	r17, 0xFF	; 255
     a74:	f8 01       	movw	r30, r16
     a76:	ea 59       	subi	r30, 0x9A	; 154
     a78:	fe 4f       	sbci	r31, 0xFE	; 254
     a7a:	80 81       	ld	r24, Z
     a7c:	0e 94 8a 04 	call	0x914	; 0x914 <glcdWriteData>
	glcdInit();
	glcdClear();
	
	for(int i =0 ; i<8 ; i++)
	{
		for(int j=0 ; j<8 ; j++)
     a80:	08 30       	cpi	r16, 0x08	; 8
     a82:	11 05       	cpc	r17, r1
     a84:	89 f7       	brne	.-30     	; 0xa68 <main+0x76>
     a86:	08 94       	sec
     a88:	e1 08       	sbc	r14, r1
     a8a:	f1 08       	sbc	r15, r1

	lcdInit();
	glcdInit();
	glcdClear();
	
	for(int i =0 ; i<8 ; i++)
     a8c:	e1 14       	cp	r14, r1
     a8e:	f1 04       	cpc	r15, r1
     a90:	19 f0       	breq	.+6      	; 0xa98 <main+0xa6>
}



int main(void)
{
     a92:	00 e0       	ldi	r16, 0x00	; 0
     a94:	10 e0       	ldi	r17, 0x00	; 0
     a96:	e8 cf       	rjmp	.-48     	; 0xa68 <main+0x76>




	// printf 사용을 위한 선언(LCD)
	fdevopen((void *)lcdWriteData, 0);
     a98:	89 ee       	ldi	r24, 0xE9	; 233
     a9a:	90 e0       	ldi	r25, 0x00	; 0
     a9c:	60 e0       	ldi	r22, 0x00	; 0
     a9e:	70 e0       	ldi	r23, 0x00	; 0
     aa0:	0e 94 ce 0c 	call	0x199c	; 0x199c <fdevopen>

	lcdBacklight(1);	// Back Light On
     aa4:	81 e0       	ldi	r24, 0x01	; 1
     aa6:	0e 94 01 01 	call	0x202	; 0x202 <lcdBacklight>



int main(void)
{
	unsigned char key, dayflag = 0, watchflag = 0, tempflag = 0;
     aaa:	10 e0       	ldi	r17, 0x00	; 0
     aac:	00 e0       	ldi	r16, 0x00	; 0
     aae:	d0 e0       	ldi	r29, 0x00	; 0
						if( month )	month--;
						else		month = 11;
					}
					if( watchflag ) {
						if( min )	min--;
						else		min = 59;
     ab0:	3b e3       	ldi	r19, 0x3B	; 59
     ab2:	f3 2e       	mov	r15, r19
					break;

				case 9:
					if( dayflag ) {
						if( month )	month--;
						else		month = 11;
     ab4:	4b e0       	ldi	r20, 0x0B	; 11
     ab6:	d4 2e       	mov	r13, r20
				case 1 :
					if( !watchflag )	dayflag ^= 0x01;
					break;

				case 2:
					if( !dayflag )		watchflag ^= 0x01;
     ab8:	ee 24       	eor	r14, r14
     aba:	e3 94       	inc	r14
						if( year )	year--;
						else		year = 99;
					}
					if( watchflag ) {
						if( hour )	hour--;
						else		hour = 23;
     abc:	57 e1       	ldi	r21, 0x17	; 23
     abe:	c5 2e       	mov	r12, r21
					break;

				case 5:
					if( dayflag ) {
						if( year )	year--;
						else		year = 99;
     ac0:	e3 e6       	ldi	r30, 0x63	; 99
     ac2:	be 2e       	mov	r11, r30
		}

		if( tempflag ) {
			if( temp_timer > 25 )	tempflag = 0;
			lcdGotoXY(0, 0);
			printf("  Temperature   ");
     ac4:	f3 e4       	ldi	r31, 0x43	; 67
     ac6:	6f 2e       	mov	r6, r31
     ac8:	f1 e0       	ldi	r31, 0x01	; 1
     aca:	7f 2e       	mov	r7, r31
			lcdGotoXY(0, 1);
			printf("     %05.1f      ", 100.0 * (adc_buffer / 1023.0));
     acc:	a4 e5       	ldi	r26, 0x54	; 84
     ace:	4a 2e       	mov	r4, r26
     ad0:	a1 e0       	ldi	r26, 0x01	; 1
     ad2:	5a 2e       	mov	r5, r26
		}
		else	displayWatch();

		ADMUX = 2;
     ad4:	b2 e0       	ldi	r27, 0x02	; 2
     ad6:	ab 2e       	mov	r10, r27
	fdevopen((void *)lcdWriteData, 0);

	lcdBacklight(1);	// Back Light On

	while( 1 ) {
		key = getkey(key);
     ad8:	8c 2f       	mov	r24, r28
     ada:	0e 94 2b 02 	call	0x456	; 0x456 <getkey>
     ade:	c8 2f       	mov	r28, r24
		if( keyflag ) {
     ae0:	80 91 33 06 	lds	r24, 0x0633
     ae4:	88 23       	and	r24, r24
     ae6:	09 f4       	brne	.+2      	; 0xaea <main+0xf8>
     ae8:	ce c0       	rjmp	.+412    	; 0xc86 <main+0x294>
			switch( key ) {
     aea:	c6 30       	cpi	r28, 0x06	; 6
     aec:	09 f4       	brne	.+2      	; 0xaf0 <main+0xfe>
     aee:	47 c0       	rjmp	.+142    	; 0xb7e <main+0x18c>
     af0:	c7 30       	cpi	r28, 0x07	; 7
     af2:	78 f4       	brcc	.+30     	; 0xb12 <main+0x120>
     af4:	c2 30       	cpi	r28, 0x02	; 2
     af6:	11 f1       	breq	.+68     	; 0xb3c <main+0x14a>
     af8:	c3 30       	cpi	r28, 0x03	; 3
     afa:	20 f4       	brcc	.+8      	; 0xb04 <main+0x112>
     afc:	c1 30       	cpi	r28, 0x01	; 1
     afe:	09 f0       	breq	.+2      	; 0xb02 <main+0x110>
     b00:	c2 c0       	rjmp	.+388    	; 0xc86 <main+0x294>
     b02:	17 c0       	rjmp	.+46     	; 0xb32 <main+0x140>
     b04:	c4 30       	cpi	r28, 0x04	; 4
     b06:	09 f4       	brne	.+2      	; 0xb0a <main+0x118>
     b08:	bb c0       	rjmp	.+374    	; 0xc80 <main+0x28e>
     b0a:	c5 30       	cpi	r28, 0x05	; 5
     b0c:	09 f0       	breq	.+2      	; 0xb10 <main+0x11e>
     b0e:	bb c0       	rjmp	.+374    	; 0xc86 <main+0x294>
     b10:	1a c0       	rjmp	.+52     	; 0xb46 <main+0x154>
     b12:	ca 30       	cpi	r28, 0x0A	; 10
     b14:	09 f4       	brne	.+2      	; 0xb18 <main+0x126>
     b16:	6d c0       	rjmp	.+218    	; 0xbf2 <main+0x200>
     b18:	cb 30       	cpi	r28, 0x0B	; 11
     b1a:	20 f4       	brcc	.+8      	; 0xb24 <main+0x132>
     b1c:	c9 30       	cpi	r28, 0x09	; 9
     b1e:	09 f0       	breq	.+2      	; 0xb22 <main+0x130>
     b20:	b2 c0       	rjmp	.+356    	; 0xc86 <main+0x294>
     b22:	4b c0       	rjmp	.+150    	; 0xbba <main+0x1c8>
     b24:	cd 30       	cpi	r28, 0x0D	; 13
     b26:	09 f4       	brne	.+2      	; 0xb2a <main+0x138>
     b28:	81 c0       	rjmp	.+258    	; 0xc2c <main+0x23a>
     b2a:	ce 30       	cpi	r28, 0x0E	; 14
     b2c:	09 f0       	breq	.+2      	; 0xb30 <main+0x13e>
     b2e:	ab c0       	rjmp	.+342    	; 0xc86 <main+0x294>
     b30:	8e c0       	rjmp	.+284    	; 0xc4e <main+0x25c>
				case 1 :
					if( !watchflag )	dayflag ^= 0x01;
     b32:	00 23       	and	r16, r16
     b34:	09 f0       	breq	.+2      	; 0xb38 <main+0x146>
     b36:	a7 c0       	rjmp	.+334    	; 0xc86 <main+0x294>
     b38:	dc 27       	eor	r29, r28
     b3a:	a5 c0       	rjmp	.+330    	; 0xc86 <main+0x294>
					break;

				case 2:
					if( !dayflag )		watchflag ^= 0x01;
     b3c:	dd 23       	and	r29, r29
     b3e:	09 f0       	breq	.+2      	; 0xb42 <main+0x150>
     b40:	a2 c0       	rjmp	.+324    	; 0xc86 <main+0x294>
     b42:	0e 25       	eor	r16, r14
     b44:	a0 c0       	rjmp	.+320    	; 0xc86 <main+0x294>
					break;

				case 5:
					if( dayflag ) {
     b46:	dd 23       	and	r29, r29
     b48:	61 f0       	breq	.+24     	; 0xb62 <main+0x170>
						if( year )	year--;
     b4a:	80 91 44 06 	lds	r24, 0x0644
     b4e:	88 23       	and	r24, r24
     b50:	31 f0       	breq	.+12     	; 0xb5e <main+0x16c>
     b52:	80 91 44 06 	lds	r24, 0x0644
     b56:	81 50       	subi	r24, 0x01	; 1
     b58:	80 93 44 06 	sts	0x0644, r24
     b5c:	02 c0       	rjmp	.+4      	; 0xb62 <main+0x170>
						else		year = 99;
     b5e:	b0 92 44 06 	sts	0x0644, r11
					}
					if( watchflag ) {
     b62:	00 23       	and	r16, r16
     b64:	09 f4       	brne	.+2      	; 0xb68 <main+0x176>
     b66:	8f c0       	rjmp	.+286    	; 0xc86 <main+0x294>
						if( hour )	hour--;
     b68:	80 91 42 06 	lds	r24, 0x0642
     b6c:	88 23       	and	r24, r24
     b6e:	21 f0       	breq	.+8      	; 0xb78 <main+0x186>
     b70:	80 91 42 06 	lds	r24, 0x0642
     b74:	81 50       	subi	r24, 0x01	; 1
     b76:	1b c0       	rjmp	.+54     	; 0xbae <main+0x1bc>
						else		hour = 23;
     b78:	c0 92 42 06 	sts	0x0642, r12
     b7c:	84 c0       	rjmp	.+264    	; 0xc86 <main+0x294>
					}
					break;

				case 6:
					if( dayflag ) {
     b7e:	dd 23       	and	r29, r29
     b80:	61 f0       	breq	.+24     	; 0xb9a <main+0x1a8>
						if( year < 99 )	year++;
     b82:	80 91 44 06 	lds	r24, 0x0644
     b86:	83 36       	cpi	r24, 0x63	; 99
     b88:	30 f4       	brcc	.+12     	; 0xb96 <main+0x1a4>
     b8a:	80 91 44 06 	lds	r24, 0x0644
     b8e:	8f 5f       	subi	r24, 0xFF	; 255
     b90:	80 93 44 06 	sts	0x0644, r24
     b94:	02 c0       	rjmp	.+4      	; 0xb9a <main+0x1a8>
						else			year = 0;
     b96:	10 92 44 06 	sts	0x0644, r1
					}
					if( watchflag ) {
     b9a:	00 23       	and	r16, r16
     b9c:	09 f4       	brne	.+2      	; 0xba0 <main+0x1ae>
     b9e:	73 c0       	rjmp	.+230    	; 0xc86 <main+0x294>
						if( hour < 23 )	hour++;
     ba0:	80 91 42 06 	lds	r24, 0x0642
     ba4:	87 31       	cpi	r24, 0x17	; 23
     ba6:	30 f4       	brcc	.+12     	; 0xbb4 <main+0x1c2>
     ba8:	80 91 42 06 	lds	r24, 0x0642
     bac:	8f 5f       	subi	r24, 0xFF	; 255
     bae:	80 93 42 06 	sts	0x0642, r24
     bb2:	69 c0       	rjmp	.+210    	; 0xc86 <main+0x294>
						else			hour = 0;
     bb4:	10 92 42 06 	sts	0x0642, r1
     bb8:	66 c0       	rjmp	.+204    	; 0xc86 <main+0x294>
					}
					break;

				case 9:
					if( dayflag ) {
     bba:	dd 23       	and	r29, r29
     bbc:	61 f0       	breq	.+24     	; 0xbd6 <main+0x1e4>
						if( month )	month--;
     bbe:	80 91 38 06 	lds	r24, 0x0638
     bc2:	88 23       	and	r24, r24
     bc4:	31 f0       	breq	.+12     	; 0xbd2 <main+0x1e0>
     bc6:	80 91 38 06 	lds	r24, 0x0638
     bca:	81 50       	subi	r24, 0x01	; 1
     bcc:	80 93 38 06 	sts	0x0638, r24
     bd0:	02 c0       	rjmp	.+4      	; 0xbd6 <main+0x1e4>
						else		month = 11;
     bd2:	d0 92 38 06 	sts	0x0638, r13
					}
					if( watchflag ) {
     bd6:	00 23       	and	r16, r16
     bd8:	09 f4       	brne	.+2      	; 0xbdc <main+0x1ea>
     bda:	55 c0       	rjmp	.+170    	; 0xc86 <main+0x294>
						if( min )	min--;
     bdc:	80 91 43 06 	lds	r24, 0x0643
     be0:	88 23       	and	r24, r24
     be2:	21 f0       	breq	.+8      	; 0xbec <main+0x1fa>
     be4:	80 91 43 06 	lds	r24, 0x0643
     be8:	81 50       	subi	r24, 0x01	; 1
     bea:	1a c0       	rjmp	.+52     	; 0xc20 <main+0x22e>
						else		min = 59;
     bec:	f0 92 43 06 	sts	0x0643, r15
     bf0:	4a c0       	rjmp	.+148    	; 0xc86 <main+0x294>
					}
					break;

				case 10:
					if( dayflag ) {
     bf2:	dd 23       	and	r29, r29
     bf4:	61 f0       	breq	.+24     	; 0xc0e <main+0x21c>
						if( month < 11 )	month++;
     bf6:	80 91 38 06 	lds	r24, 0x0638
     bfa:	8b 30       	cpi	r24, 0x0B	; 11
     bfc:	30 f4       	brcc	.+12     	; 0xc0a <main+0x218>
     bfe:	80 91 38 06 	lds	r24, 0x0638
     c02:	8f 5f       	subi	r24, 0xFF	; 255
     c04:	80 93 38 06 	sts	0x0638, r24
     c08:	02 c0       	rjmp	.+4      	; 0xc0e <main+0x21c>
						else				month = 0;
     c0a:	10 92 38 06 	sts	0x0638, r1
					}
					if( watchflag ) {
     c0e:	00 23       	and	r16, r16
     c10:	d1 f1       	breq	.+116    	; 0xc86 <main+0x294>
						if( min < 59 )	min++;
     c12:	80 91 43 06 	lds	r24, 0x0643
     c16:	8b 33       	cpi	r24, 0x3B	; 59
     c18:	30 f4       	brcc	.+12     	; 0xc26 <main+0x234>
     c1a:	80 91 43 06 	lds	r24, 0x0643
     c1e:	8f 5f       	subi	r24, 0xFF	; 255
     c20:	80 93 43 06 	sts	0x0643, r24
     c24:	30 c0       	rjmp	.+96     	; 0xc86 <main+0x294>
						else			min = 0;
     c26:	10 92 43 06 	sts	0x0643, r1
     c2a:	2d c0       	rjmp	.+90     	; 0xc86 <main+0x294>
					}
					break;

				case 13:
					if( dayflag ) {
     c2c:	dd 23       	and	r29, r29
     c2e:	59 f1       	breq	.+86     	; 0xc86 <main+0x294>
						if( day )	day--;
     c30:	80 91 46 06 	lds	r24, 0x0646
     c34:	88 23       	and	r24, r24
     c36:	19 f0       	breq	.+6      	; 0xc3e <main+0x24c>
     c38:	80 91 46 06 	lds	r24, 0x0646
     c3c:	06 c0       	rjmp	.+12     	; 0xc4a <main+0x258>
						else		day = monthTable[month] - 1;
     c3e:	e0 91 38 06 	lds	r30, 0x0638
     c42:	f0 e0       	ldi	r31, 0x00	; 0
     c44:	ea 57       	subi	r30, 0x7A	; 122
     c46:	fa 4f       	sbci	r31, 0xFA	; 250
     c48:	80 81       	ld	r24, Z
     c4a:	81 50       	subi	r24, 0x01	; 1
     c4c:	13 c0       	rjmp	.+38     	; 0xc74 <main+0x282>
					}
					break;

				case 14:
					if( dayflag ) {
     c4e:	dd 23       	and	r29, r29
     c50:	d1 f0       	breq	.+52     	; 0xc86 <main+0x294>
						if( day < monthTable[month] - 1 )	day++;
     c52:	20 91 46 06 	lds	r18, 0x0646
     c56:	e0 91 38 06 	lds	r30, 0x0638
     c5a:	30 e0       	ldi	r19, 0x00	; 0
     c5c:	f0 e0       	ldi	r31, 0x00	; 0
     c5e:	ea 57       	subi	r30, 0x7A	; 122
     c60:	fa 4f       	sbci	r31, 0xFA	; 250
     c62:	80 81       	ld	r24, Z
     c64:	90 e0       	ldi	r25, 0x00	; 0
     c66:	01 97       	sbiw	r24, 0x01	; 1
     c68:	28 17       	cp	r18, r24
     c6a:	39 07       	cpc	r19, r25
     c6c:	34 f4       	brge	.+12     	; 0xc7a <main+0x288>
     c6e:	80 91 46 06 	lds	r24, 0x0646
     c72:	8f 5f       	subi	r24, 0xFF	; 255
     c74:	80 93 46 06 	sts	0x0646, r24
     c78:	06 c0       	rjmp	.+12     	; 0xc86 <main+0x294>
						else								day = 0;
     c7a:	10 92 46 06 	sts	0x0646, r1
     c7e:	03 c0       	rjmp	.+6      	; 0xc86 <main+0x294>
					}
					break;

				case 4 :
					tempflag ^= 0x01;
     c80:	1e 25       	eor	r17, r14
					temp_timer = 0;
     c82:	10 92 39 06 	sts	0x0639, r1
					break;
			}
		}

		if( tempflag ) {
     c86:	11 23       	and	r17, r17
     c88:	09 f4       	brne	.+2      	; 0xc8c <main+0x29a>
     c8a:	45 c0       	rjmp	.+138    	; 0xd16 <main+0x324>
			if( temp_timer > 25 )	tempflag = 0;
     c8c:	80 91 39 06 	lds	r24, 0x0639
     c90:	8a 31       	cpi	r24, 0x1A	; 26
     c92:	08 f0       	brcs	.+2      	; 0xc96 <main+0x2a4>
     c94:	10 e0       	ldi	r17, 0x00	; 0
			lcdGotoXY(0, 0);
     c96:	80 e0       	ldi	r24, 0x00	; 0
     c98:	60 e0       	ldi	r22, 0x00	; 0
     c9a:	0e 94 61 01 	call	0x2c2	; 0x2c2 <lcdGotoXY>
			printf("  Temperature   ");
     c9e:	00 d0       	rcall	.+0      	; 0xca0 <main+0x2ae>
     ca0:	ed b7       	in	r30, 0x3d	; 61
     ca2:	fe b7       	in	r31, 0x3e	; 62
     ca4:	72 82       	std	Z+2, r7	; 0x02
     ca6:	61 82       	std	Z+1, r6	; 0x01
     ca8:	0e 94 44 0d 	call	0x1a88	; 0x1a88 <printf>
			lcdGotoXY(0, 1);
     cac:	0f 90       	pop	r0
     cae:	0f 90       	pop	r0
     cb0:	80 e0       	ldi	r24, 0x00	; 0
     cb2:	61 e0       	ldi	r22, 0x01	; 1
     cb4:	0e 94 61 01 	call	0x2c2	; 0x2c2 <lcdGotoXY>
			printf("     %05.1f      ", 100.0 * (adc_buffer / 1023.0));
     cb8:	00 d0       	rcall	.+0      	; 0xcba <main+0x2c8>
     cba:	00 d0       	rcall	.+0      	; 0xcbc <main+0x2ca>
     cbc:	00 d0       	rcall	.+0      	; 0xcbe <main+0x2cc>
     cbe:	2d b6       	in	r2, 0x3d	; 61
     cc0:	3e b6       	in	r3, 0x3e	; 62
     cc2:	08 94       	sec
     cc4:	21 1c       	adc	r2, r1
     cc6:	31 1c       	adc	r3, r1
     cc8:	ed b7       	in	r30, 0x3d	; 61
     cca:	fe b7       	in	r31, 0x3e	; 62
     ccc:	52 82       	std	Z+2, r5	; 0x02
     cce:	41 82       	std	Z+1, r4	; 0x01
     cd0:	b4 01       	movw	r22, r8
     cd2:	80 e0       	ldi	r24, 0x00	; 0
     cd4:	90 e0       	ldi	r25, 0x00	; 0
     cd6:	0e 94 07 07 	call	0xe0e	; 0xe0e <__floatunsisf>
     cda:	20 e0       	ldi	r18, 0x00	; 0
     cdc:	30 ec       	ldi	r19, 0xC0	; 192
     cde:	4f e7       	ldi	r20, 0x7F	; 127
     ce0:	54 e4       	ldi	r21, 0x44	; 68
     ce2:	0e 94 9f 06 	call	0xd3e	; 0xd3e <__divsf3>
     ce6:	20 e0       	ldi	r18, 0x00	; 0
     ce8:	30 e0       	ldi	r19, 0x00	; 0
     cea:	48 ec       	ldi	r20, 0xC8	; 200
     cec:	52 e4       	ldi	r21, 0x42	; 66
     cee:	0e 94 95 07 	call	0xf2a	; 0xf2a <__mulsf3>
     cf2:	dc 01       	movw	r26, r24
     cf4:	cb 01       	movw	r24, r22
     cf6:	f1 01       	movw	r30, r2
     cf8:	82 83       	std	Z+2, r24	; 0x02
     cfa:	93 83       	std	Z+3, r25	; 0x03
     cfc:	a4 83       	std	Z+4, r26	; 0x04
     cfe:	b5 83       	std	Z+5, r27	; 0x05
     d00:	0e 94 44 0d 	call	0x1a88	; 0x1a88 <printf>
     d04:	8d b7       	in	r24, 0x3d	; 61
     d06:	9e b7       	in	r25, 0x3e	; 62
     d08:	06 96       	adiw	r24, 0x06	; 6
     d0a:	0f b6       	in	r0, 0x3f	; 63
     d0c:	f8 94       	cli
     d0e:	9e bf       	out	0x3e, r25	; 62
     d10:	0f be       	out	0x3f, r0	; 63
     d12:	8d bf       	out	0x3d, r24	; 61
     d14:	02 c0       	rjmp	.+4      	; 0xd1a <main+0x328>
		}
		else	displayWatch();
     d16:	0e 94 ab 02 	call	0x556	; 0x556 <displayWatch>

		ADMUX = 2;
     d1a:	a7 b8       	out	0x07, r10	; 7
		ADCSR |= 0x40;	// ADC 변환 시작
     d1c:	36 9a       	sbi	0x06, 6	; 6
		while( !(ADCSR & (1 << ADIF)) );
     d1e:	34 9b       	sbis	0x06, 4	; 6
     d20:	fe cf       	rjmp	.-4      	; 0xd1e <main+0x32c>
		adc_buffer = ADC;
     d22:	84 b0       	in	r8, 0x04	; 4
     d24:	95 b0       	in	r9, 0x05	; 5

		ADMUX = 1;
     d26:	e7 b8       	out	0x07, r14	; 7
		ADCSR |= 0x40;	// ADC 변환 시작
     d28:	36 9a       	sbi	0x06, 6	; 6
		while( !(ADCSR & (1 << ADIF)) );
     d2a:	34 9b       	sbis	0x06, 4	; 6
     d2c:	fe cf       	rjmp	.-4      	; 0xd2a <main+0x338>
		OCR2 = ADC >> 2;
     d2e:	84 b1       	in	r24, 0x04	; 4
     d30:	95 b1       	in	r25, 0x05	; 5
     d32:	96 95       	lsr	r25
     d34:	87 95       	ror	r24
     d36:	96 95       	lsr	r25
     d38:	87 95       	ror	r24
     d3a:	83 bd       	out	0x23, r24	; 35
	}
     d3c:	cd ce       	rjmp	.-614    	; 0xad8 <main+0xe6>

00000d3e <__divsf3>:
     d3e:	0c d0       	rcall	.+24     	; 0xd58 <__divsf3x>
     d40:	ba c0       	rjmp	.+372    	; 0xeb6 <__fp_round>
     d42:	b2 d0       	rcall	.+356    	; 0xea8 <__fp_pscB>
     d44:	40 f0       	brcs	.+16     	; 0xd56 <__divsf3+0x18>
     d46:	a9 d0       	rcall	.+338    	; 0xe9a <__fp_pscA>
     d48:	30 f0       	brcs	.+12     	; 0xd56 <__divsf3+0x18>
     d4a:	21 f4       	brne	.+8      	; 0xd54 <__divsf3+0x16>
     d4c:	5f 3f       	cpi	r21, 0xFF	; 255
     d4e:	19 f0       	breq	.+6      	; 0xd56 <__divsf3+0x18>
     d50:	9b c0       	rjmp	.+310    	; 0xe88 <__fp_inf>
     d52:	51 11       	cpse	r21, r1
     d54:	e4 c0       	rjmp	.+456    	; 0xf1e <__fp_szero>
     d56:	9e c0       	rjmp	.+316    	; 0xe94 <__fp_nan>

00000d58 <__divsf3x>:
     d58:	bf d0       	rcall	.+382    	; 0xed8 <__fp_split3>
     d5a:	98 f3       	brcs	.-26     	; 0xd42 <__divsf3+0x4>

00000d5c <__divsf3_pse>:
     d5c:	99 23       	and	r25, r25
     d5e:	c9 f3       	breq	.-14     	; 0xd52 <__divsf3+0x14>
     d60:	55 23       	and	r21, r21
     d62:	b1 f3       	breq	.-20     	; 0xd50 <__divsf3+0x12>
     d64:	95 1b       	sub	r25, r21
     d66:	55 0b       	sbc	r21, r21
     d68:	bb 27       	eor	r27, r27
     d6a:	aa 27       	eor	r26, r26
     d6c:	62 17       	cp	r22, r18
     d6e:	73 07       	cpc	r23, r19
     d70:	84 07       	cpc	r24, r20
     d72:	38 f0       	brcs	.+14     	; 0xd82 <__divsf3_pse+0x26>
     d74:	9f 5f       	subi	r25, 0xFF	; 255
     d76:	5f 4f       	sbci	r21, 0xFF	; 255
     d78:	22 0f       	add	r18, r18
     d7a:	33 1f       	adc	r19, r19
     d7c:	44 1f       	adc	r20, r20
     d7e:	aa 1f       	adc	r26, r26
     d80:	a9 f3       	breq	.-22     	; 0xd6c <__divsf3_pse+0x10>
     d82:	33 d0       	rcall	.+102    	; 0xdea <__divsf3_pse+0x8e>
     d84:	0e 2e       	mov	r0, r30
     d86:	3a f0       	brmi	.+14     	; 0xd96 <__divsf3_pse+0x3a>
     d88:	e0 e8       	ldi	r30, 0x80	; 128
     d8a:	30 d0       	rcall	.+96     	; 0xdec <__divsf3_pse+0x90>
     d8c:	91 50       	subi	r25, 0x01	; 1
     d8e:	50 40       	sbci	r21, 0x00	; 0
     d90:	e6 95       	lsr	r30
     d92:	00 1c       	adc	r0, r0
     d94:	ca f7       	brpl	.-14     	; 0xd88 <__divsf3_pse+0x2c>
     d96:	29 d0       	rcall	.+82     	; 0xdea <__divsf3_pse+0x8e>
     d98:	fe 2f       	mov	r31, r30
     d9a:	27 d0       	rcall	.+78     	; 0xdea <__divsf3_pse+0x8e>
     d9c:	66 0f       	add	r22, r22
     d9e:	77 1f       	adc	r23, r23
     da0:	88 1f       	adc	r24, r24
     da2:	bb 1f       	adc	r27, r27
     da4:	26 17       	cp	r18, r22
     da6:	37 07       	cpc	r19, r23
     da8:	48 07       	cpc	r20, r24
     daa:	ab 07       	cpc	r26, r27
     dac:	b0 e8       	ldi	r27, 0x80	; 128
     dae:	09 f0       	breq	.+2      	; 0xdb2 <__divsf3_pse+0x56>
     db0:	bb 0b       	sbc	r27, r27
     db2:	80 2d       	mov	r24, r0
     db4:	bf 01       	movw	r22, r30
     db6:	ff 27       	eor	r31, r31
     db8:	93 58       	subi	r25, 0x83	; 131
     dba:	5f 4f       	sbci	r21, 0xFF	; 255
     dbc:	2a f0       	brmi	.+10     	; 0xdc8 <__divsf3_pse+0x6c>
     dbe:	9e 3f       	cpi	r25, 0xFE	; 254
     dc0:	51 05       	cpc	r21, r1
     dc2:	68 f0       	brcs	.+26     	; 0xdde <__divsf3_pse+0x82>
     dc4:	61 c0       	rjmp	.+194    	; 0xe88 <__fp_inf>
     dc6:	ab c0       	rjmp	.+342    	; 0xf1e <__fp_szero>
     dc8:	5f 3f       	cpi	r21, 0xFF	; 255
     dca:	ec f3       	brlt	.-6      	; 0xdc6 <__divsf3_pse+0x6a>
     dcc:	98 3e       	cpi	r25, 0xE8	; 232
     dce:	dc f3       	brlt	.-10     	; 0xdc6 <__divsf3_pse+0x6a>
     dd0:	86 95       	lsr	r24
     dd2:	77 95       	ror	r23
     dd4:	67 95       	ror	r22
     dd6:	b7 95       	ror	r27
     dd8:	f7 95       	ror	r31
     dda:	9f 5f       	subi	r25, 0xFF	; 255
     ddc:	c9 f7       	brne	.-14     	; 0xdd0 <__divsf3_pse+0x74>
     dde:	88 0f       	add	r24, r24
     de0:	91 1d       	adc	r25, r1
     de2:	96 95       	lsr	r25
     de4:	87 95       	ror	r24
     de6:	97 f9       	bld	r25, 7
     de8:	08 95       	ret
     dea:	e1 e0       	ldi	r30, 0x01	; 1
     dec:	66 0f       	add	r22, r22
     dee:	77 1f       	adc	r23, r23
     df0:	88 1f       	adc	r24, r24
     df2:	bb 1f       	adc	r27, r27
     df4:	62 17       	cp	r22, r18
     df6:	73 07       	cpc	r23, r19
     df8:	84 07       	cpc	r24, r20
     dfa:	ba 07       	cpc	r27, r26
     dfc:	20 f0       	brcs	.+8      	; 0xe06 <__divsf3_pse+0xaa>
     dfe:	62 1b       	sub	r22, r18
     e00:	73 0b       	sbc	r23, r19
     e02:	84 0b       	sbc	r24, r20
     e04:	ba 0b       	sbc	r27, r26
     e06:	ee 1f       	adc	r30, r30
     e08:	88 f7       	brcc	.-30     	; 0xdec <__divsf3_pse+0x90>
     e0a:	e0 95       	com	r30
     e0c:	08 95       	ret

00000e0e <__floatunsisf>:
     e0e:	e8 94       	clt
     e10:	09 c0       	rjmp	.+18     	; 0xe24 <__floatsisf+0x12>

00000e12 <__floatsisf>:
     e12:	97 fb       	bst	r25, 7
     e14:	3e f4       	brtc	.+14     	; 0xe24 <__floatsisf+0x12>
     e16:	90 95       	com	r25
     e18:	80 95       	com	r24
     e1a:	70 95       	com	r23
     e1c:	61 95       	neg	r22
     e1e:	7f 4f       	sbci	r23, 0xFF	; 255
     e20:	8f 4f       	sbci	r24, 0xFF	; 255
     e22:	9f 4f       	sbci	r25, 0xFF	; 255
     e24:	99 23       	and	r25, r25
     e26:	a9 f0       	breq	.+42     	; 0xe52 <__floatsisf+0x40>
     e28:	f9 2f       	mov	r31, r25
     e2a:	96 e9       	ldi	r25, 0x96	; 150
     e2c:	bb 27       	eor	r27, r27
     e2e:	93 95       	inc	r25
     e30:	f6 95       	lsr	r31
     e32:	87 95       	ror	r24
     e34:	77 95       	ror	r23
     e36:	67 95       	ror	r22
     e38:	b7 95       	ror	r27
     e3a:	f1 11       	cpse	r31, r1
     e3c:	f8 cf       	rjmp	.-16     	; 0xe2e <__floatsisf+0x1c>
     e3e:	fa f4       	brpl	.+62     	; 0xe7e <__floatsisf+0x6c>
     e40:	bb 0f       	add	r27, r27
     e42:	11 f4       	brne	.+4      	; 0xe48 <__floatsisf+0x36>
     e44:	60 ff       	sbrs	r22, 0
     e46:	1b c0       	rjmp	.+54     	; 0xe7e <__floatsisf+0x6c>
     e48:	6f 5f       	subi	r22, 0xFF	; 255
     e4a:	7f 4f       	sbci	r23, 0xFF	; 255
     e4c:	8f 4f       	sbci	r24, 0xFF	; 255
     e4e:	9f 4f       	sbci	r25, 0xFF	; 255
     e50:	16 c0       	rjmp	.+44     	; 0xe7e <__floatsisf+0x6c>
     e52:	88 23       	and	r24, r24
     e54:	11 f0       	breq	.+4      	; 0xe5a <__floatsisf+0x48>
     e56:	96 e9       	ldi	r25, 0x96	; 150
     e58:	11 c0       	rjmp	.+34     	; 0xe7c <__floatsisf+0x6a>
     e5a:	77 23       	and	r23, r23
     e5c:	21 f0       	breq	.+8      	; 0xe66 <__floatsisf+0x54>
     e5e:	9e e8       	ldi	r25, 0x8E	; 142
     e60:	87 2f       	mov	r24, r23
     e62:	76 2f       	mov	r23, r22
     e64:	05 c0       	rjmp	.+10     	; 0xe70 <__floatsisf+0x5e>
     e66:	66 23       	and	r22, r22
     e68:	71 f0       	breq	.+28     	; 0xe86 <__floatsisf+0x74>
     e6a:	96 e8       	ldi	r25, 0x86	; 134
     e6c:	86 2f       	mov	r24, r22
     e6e:	70 e0       	ldi	r23, 0x00	; 0
     e70:	60 e0       	ldi	r22, 0x00	; 0
     e72:	2a f0       	brmi	.+10     	; 0xe7e <__floatsisf+0x6c>
     e74:	9a 95       	dec	r25
     e76:	66 0f       	add	r22, r22
     e78:	77 1f       	adc	r23, r23
     e7a:	88 1f       	adc	r24, r24
     e7c:	da f7       	brpl	.-10     	; 0xe74 <__floatsisf+0x62>
     e7e:	88 0f       	add	r24, r24
     e80:	96 95       	lsr	r25
     e82:	87 95       	ror	r24
     e84:	97 f9       	bld	r25, 7
     e86:	08 95       	ret

00000e88 <__fp_inf>:
     e88:	97 f9       	bld	r25, 7
     e8a:	9f 67       	ori	r25, 0x7F	; 127
     e8c:	80 e8       	ldi	r24, 0x80	; 128
     e8e:	70 e0       	ldi	r23, 0x00	; 0
     e90:	60 e0       	ldi	r22, 0x00	; 0
     e92:	08 95       	ret

00000e94 <__fp_nan>:
     e94:	9f ef       	ldi	r25, 0xFF	; 255
     e96:	80 ec       	ldi	r24, 0xC0	; 192
     e98:	08 95       	ret

00000e9a <__fp_pscA>:
     e9a:	00 24       	eor	r0, r0
     e9c:	0a 94       	dec	r0
     e9e:	16 16       	cp	r1, r22
     ea0:	17 06       	cpc	r1, r23
     ea2:	18 06       	cpc	r1, r24
     ea4:	09 06       	cpc	r0, r25
     ea6:	08 95       	ret

00000ea8 <__fp_pscB>:
     ea8:	00 24       	eor	r0, r0
     eaa:	0a 94       	dec	r0
     eac:	12 16       	cp	r1, r18
     eae:	13 06       	cpc	r1, r19
     eb0:	14 06       	cpc	r1, r20
     eb2:	05 06       	cpc	r0, r21
     eb4:	08 95       	ret

00000eb6 <__fp_round>:
     eb6:	09 2e       	mov	r0, r25
     eb8:	03 94       	inc	r0
     eba:	00 0c       	add	r0, r0
     ebc:	11 f4       	brne	.+4      	; 0xec2 <__fp_round+0xc>
     ebe:	88 23       	and	r24, r24
     ec0:	52 f0       	brmi	.+20     	; 0xed6 <__fp_round+0x20>
     ec2:	bb 0f       	add	r27, r27
     ec4:	40 f4       	brcc	.+16     	; 0xed6 <__fp_round+0x20>
     ec6:	bf 2b       	or	r27, r31
     ec8:	11 f4       	brne	.+4      	; 0xece <__fp_round+0x18>
     eca:	60 ff       	sbrs	r22, 0
     ecc:	04 c0       	rjmp	.+8      	; 0xed6 <__fp_round+0x20>
     ece:	6f 5f       	subi	r22, 0xFF	; 255
     ed0:	7f 4f       	sbci	r23, 0xFF	; 255
     ed2:	8f 4f       	sbci	r24, 0xFF	; 255
     ed4:	9f 4f       	sbci	r25, 0xFF	; 255
     ed6:	08 95       	ret

00000ed8 <__fp_split3>:
     ed8:	57 fd       	sbrc	r21, 7
     eda:	90 58       	subi	r25, 0x80	; 128
     edc:	44 0f       	add	r20, r20
     ede:	55 1f       	adc	r21, r21
     ee0:	59 f0       	breq	.+22     	; 0xef8 <__fp_splitA+0x10>
     ee2:	5f 3f       	cpi	r21, 0xFF	; 255
     ee4:	71 f0       	breq	.+28     	; 0xf02 <__fp_splitA+0x1a>
     ee6:	47 95       	ror	r20

00000ee8 <__fp_splitA>:
     ee8:	88 0f       	add	r24, r24
     eea:	97 fb       	bst	r25, 7
     eec:	99 1f       	adc	r25, r25
     eee:	61 f0       	breq	.+24     	; 0xf08 <__fp_splitA+0x20>
     ef0:	9f 3f       	cpi	r25, 0xFF	; 255
     ef2:	79 f0       	breq	.+30     	; 0xf12 <__fp_splitA+0x2a>
     ef4:	87 95       	ror	r24
     ef6:	08 95       	ret
     ef8:	12 16       	cp	r1, r18
     efa:	13 06       	cpc	r1, r19
     efc:	14 06       	cpc	r1, r20
     efe:	55 1f       	adc	r21, r21
     f00:	f2 cf       	rjmp	.-28     	; 0xee6 <__fp_split3+0xe>
     f02:	46 95       	lsr	r20
     f04:	f1 df       	rcall	.-30     	; 0xee8 <__fp_splitA>
     f06:	08 c0       	rjmp	.+16     	; 0xf18 <__fp_splitA+0x30>
     f08:	16 16       	cp	r1, r22
     f0a:	17 06       	cpc	r1, r23
     f0c:	18 06       	cpc	r1, r24
     f0e:	99 1f       	adc	r25, r25
     f10:	f1 cf       	rjmp	.-30     	; 0xef4 <__fp_splitA+0xc>
     f12:	86 95       	lsr	r24
     f14:	71 05       	cpc	r23, r1
     f16:	61 05       	cpc	r22, r1
     f18:	08 94       	sec
     f1a:	08 95       	ret

00000f1c <__fp_zero>:
     f1c:	e8 94       	clt

00000f1e <__fp_szero>:
     f1e:	bb 27       	eor	r27, r27
     f20:	66 27       	eor	r22, r22
     f22:	77 27       	eor	r23, r23
     f24:	cb 01       	movw	r24, r22
     f26:	97 f9       	bld	r25, 7
     f28:	08 95       	ret

00000f2a <__mulsf3>:
     f2a:	0b d0       	rcall	.+22     	; 0xf42 <__mulsf3x>
     f2c:	c4 cf       	rjmp	.-120    	; 0xeb6 <__fp_round>
     f2e:	b5 df       	rcall	.-150    	; 0xe9a <__fp_pscA>
     f30:	28 f0       	brcs	.+10     	; 0xf3c <__mulsf3+0x12>
     f32:	ba df       	rcall	.-140    	; 0xea8 <__fp_pscB>
     f34:	18 f0       	brcs	.+6      	; 0xf3c <__mulsf3+0x12>
     f36:	95 23       	and	r25, r21
     f38:	09 f0       	breq	.+2      	; 0xf3c <__mulsf3+0x12>
     f3a:	a6 cf       	rjmp	.-180    	; 0xe88 <__fp_inf>
     f3c:	ab cf       	rjmp	.-170    	; 0xe94 <__fp_nan>
     f3e:	11 24       	eor	r1, r1
     f40:	ee cf       	rjmp	.-36     	; 0xf1e <__fp_szero>

00000f42 <__mulsf3x>:
     f42:	ca df       	rcall	.-108    	; 0xed8 <__fp_split3>
     f44:	a0 f3       	brcs	.-24     	; 0xf2e <__mulsf3+0x4>

00000f46 <__mulsf3_pse>:
     f46:	95 9f       	mul	r25, r21
     f48:	d1 f3       	breq	.-12     	; 0xf3e <__mulsf3+0x14>
     f4a:	95 0f       	add	r25, r21
     f4c:	50 e0       	ldi	r21, 0x00	; 0
     f4e:	55 1f       	adc	r21, r21
     f50:	62 9f       	mul	r22, r18
     f52:	f0 01       	movw	r30, r0
     f54:	72 9f       	mul	r23, r18
     f56:	bb 27       	eor	r27, r27
     f58:	f0 0d       	add	r31, r0
     f5a:	b1 1d       	adc	r27, r1
     f5c:	63 9f       	mul	r22, r19
     f5e:	aa 27       	eor	r26, r26
     f60:	f0 0d       	add	r31, r0
     f62:	b1 1d       	adc	r27, r1
     f64:	aa 1f       	adc	r26, r26
     f66:	64 9f       	mul	r22, r20
     f68:	66 27       	eor	r22, r22
     f6a:	b0 0d       	add	r27, r0
     f6c:	a1 1d       	adc	r26, r1
     f6e:	66 1f       	adc	r22, r22
     f70:	82 9f       	mul	r24, r18
     f72:	22 27       	eor	r18, r18
     f74:	b0 0d       	add	r27, r0
     f76:	a1 1d       	adc	r26, r1
     f78:	62 1f       	adc	r22, r18
     f7a:	73 9f       	mul	r23, r19
     f7c:	b0 0d       	add	r27, r0
     f7e:	a1 1d       	adc	r26, r1
     f80:	62 1f       	adc	r22, r18
     f82:	83 9f       	mul	r24, r19
     f84:	a0 0d       	add	r26, r0
     f86:	61 1d       	adc	r22, r1
     f88:	22 1f       	adc	r18, r18
     f8a:	74 9f       	mul	r23, r20
     f8c:	33 27       	eor	r19, r19
     f8e:	a0 0d       	add	r26, r0
     f90:	61 1d       	adc	r22, r1
     f92:	23 1f       	adc	r18, r19
     f94:	84 9f       	mul	r24, r20
     f96:	60 0d       	add	r22, r0
     f98:	21 1d       	adc	r18, r1
     f9a:	82 2f       	mov	r24, r18
     f9c:	76 2f       	mov	r23, r22
     f9e:	6a 2f       	mov	r22, r26
     fa0:	11 24       	eor	r1, r1
     fa2:	9f 57       	subi	r25, 0x7F	; 127
     fa4:	50 40       	sbci	r21, 0x00	; 0
     fa6:	8a f0       	brmi	.+34     	; 0xfca <__mulsf3_pse+0x84>
     fa8:	e1 f0       	breq	.+56     	; 0xfe2 <__mulsf3_pse+0x9c>
     faa:	88 23       	and	r24, r24
     fac:	4a f0       	brmi	.+18     	; 0xfc0 <__mulsf3_pse+0x7a>
     fae:	ee 0f       	add	r30, r30
     fb0:	ff 1f       	adc	r31, r31
     fb2:	bb 1f       	adc	r27, r27
     fb4:	66 1f       	adc	r22, r22
     fb6:	77 1f       	adc	r23, r23
     fb8:	88 1f       	adc	r24, r24
     fba:	91 50       	subi	r25, 0x01	; 1
     fbc:	50 40       	sbci	r21, 0x00	; 0
     fbe:	a9 f7       	brne	.-22     	; 0xfaa <__mulsf3_pse+0x64>
     fc0:	9e 3f       	cpi	r25, 0xFE	; 254
     fc2:	51 05       	cpc	r21, r1
     fc4:	70 f0       	brcs	.+28     	; 0xfe2 <__mulsf3_pse+0x9c>
     fc6:	60 cf       	rjmp	.-320    	; 0xe88 <__fp_inf>
     fc8:	aa cf       	rjmp	.-172    	; 0xf1e <__fp_szero>
     fca:	5f 3f       	cpi	r21, 0xFF	; 255
     fcc:	ec f3       	brlt	.-6      	; 0xfc8 <__mulsf3_pse+0x82>
     fce:	98 3e       	cpi	r25, 0xE8	; 232
     fd0:	dc f3       	brlt	.-10     	; 0xfc8 <__mulsf3_pse+0x82>
     fd2:	86 95       	lsr	r24
     fd4:	77 95       	ror	r23
     fd6:	67 95       	ror	r22
     fd8:	b7 95       	ror	r27
     fda:	f7 95       	ror	r31
     fdc:	e7 95       	ror	r30
     fde:	9f 5f       	subi	r25, 0xFF	; 255
     fe0:	c1 f7       	brne	.-16     	; 0xfd2 <__mulsf3_pse+0x8c>
     fe2:	fe 2b       	or	r31, r30
     fe4:	88 0f       	add	r24, r24
     fe6:	91 1d       	adc	r25, r1
     fe8:	96 95       	lsr	r25
     fea:	87 95       	ror	r24
     fec:	97 f9       	bld	r25, 7
     fee:	08 95       	ret

00000ff0 <vfprintf>:
     ff0:	2f 92       	push	r2
     ff2:	3f 92       	push	r3
     ff4:	4f 92       	push	r4
     ff6:	5f 92       	push	r5
     ff8:	6f 92       	push	r6
     ffa:	7f 92       	push	r7
     ffc:	8f 92       	push	r8
     ffe:	9f 92       	push	r9
    1000:	af 92       	push	r10
    1002:	bf 92       	push	r11
    1004:	cf 92       	push	r12
    1006:	df 92       	push	r13
    1008:	ef 92       	push	r14
    100a:	ff 92       	push	r15
    100c:	0f 93       	push	r16
    100e:	1f 93       	push	r17
    1010:	cf 93       	push	r28
    1012:	df 93       	push	r29
    1014:	cd b7       	in	r28, 0x3d	; 61
    1016:	de b7       	in	r29, 0x3e	; 62
    1018:	65 97       	sbiw	r28, 0x15	; 21
    101a:	0f b6       	in	r0, 0x3f	; 63
    101c:	f8 94       	cli
    101e:	de bf       	out	0x3e, r29	; 62
    1020:	0f be       	out	0x3f, r0	; 63
    1022:	cd bf       	out	0x3d, r28	; 61
    1024:	4c 01       	movw	r8, r24
    1026:	7f 87       	std	Y+15, r23	; 0x0f
    1028:	6e 87       	std	Y+14, r22	; 0x0e
    102a:	fc 01       	movw	r30, r24
    102c:	17 82       	std	Z+7, r1	; 0x07
    102e:	16 82       	std	Z+6, r1	; 0x06
    1030:	83 81       	ldd	r24, Z+3	; 0x03
    1032:	81 fd       	sbrc	r24, 1
    1034:	04 c0       	rjmp	.+8      	; 0x103e <vfprintf+0x4e>
    1036:	76 c3       	rjmp	.+1772   	; 0x1724 <__stack+0x625>
    1038:	4c 85       	ldd	r20, Y+12	; 0x0c
    103a:	5d 85       	ldd	r21, Y+13	; 0x0d
    103c:	04 c0       	rjmp	.+8      	; 0x1046 <vfprintf+0x56>
    103e:	1e 01       	movw	r2, r28
    1040:	08 94       	sec
    1042:	21 1c       	adc	r2, r1
    1044:	31 1c       	adc	r3, r1
    1046:	f4 01       	movw	r30, r8
    1048:	93 81       	ldd	r25, Z+3	; 0x03
    104a:	ee 85       	ldd	r30, Y+14	; 0x0e
    104c:	ff 85       	ldd	r31, Y+15	; 0x0f
    104e:	93 fd       	sbrc	r25, 3
    1050:	85 91       	lpm	r24, Z+
    1052:	93 ff       	sbrs	r25, 3
    1054:	81 91       	ld	r24, Z+
    1056:	ff 87       	std	Y+15, r31	; 0x0f
    1058:	ee 87       	std	Y+14, r30	; 0x0e
    105a:	88 23       	and	r24, r24
    105c:	09 f4       	brne	.+2      	; 0x1060 <vfprintf+0x70>
    105e:	5e c3       	rjmp	.+1724   	; 0x171c <__stack+0x61d>
    1060:	85 32       	cpi	r24, 0x25	; 37
    1062:	41 f4       	brne	.+16     	; 0x1074 <vfprintf+0x84>
    1064:	93 fd       	sbrc	r25, 3
    1066:	85 91       	lpm	r24, Z+
    1068:	93 ff       	sbrs	r25, 3
    106a:	81 91       	ld	r24, Z+
    106c:	ff 87       	std	Y+15, r31	; 0x0f
    106e:	ee 87       	std	Y+14, r30	; 0x0e
    1070:	85 32       	cpi	r24, 0x25	; 37
    1072:	59 f4       	brne	.+22     	; 0x108a <vfprintf+0x9a>
    1074:	90 e0       	ldi	r25, 0x00	; 0
    1076:	b4 01       	movw	r22, r8
    1078:	4c 8b       	std	Y+20, r20	; 0x14
    107a:	5d 8b       	std	Y+21, r21	; 0x15
    107c:	0e 94 18 0d 	call	0x1a30	; 0x1a30 <fputc>
    1080:	4c 89       	ldd	r20, Y+20	; 0x14
    1082:	5d 89       	ldd	r21, Y+21	; 0x15
    1084:	5d 87       	std	Y+13, r21	; 0x0d
    1086:	4c 87       	std	Y+12, r20	; 0x0c
    1088:	d7 cf       	rjmp	.-82     	; 0x1038 <vfprintf+0x48>
    108a:	ff 24       	eor	r15, r15
    108c:	dd 24       	eor	r13, r13
    108e:	10 e0       	ldi	r17, 0x00	; 0
    1090:	10 32       	cpi	r17, 0x20	; 32
    1092:	b0 f4       	brcc	.+44     	; 0x10c0 <vfprintf+0xd0>
    1094:	8b 32       	cpi	r24, 0x2B	; 43
    1096:	69 f0       	breq	.+26     	; 0x10b2 <vfprintf+0xc2>
    1098:	8c 32       	cpi	r24, 0x2C	; 44
    109a:	28 f4       	brcc	.+10     	; 0x10a6 <vfprintf+0xb6>
    109c:	80 32       	cpi	r24, 0x20	; 32
    109e:	51 f0       	breq	.+20     	; 0x10b4 <vfprintf+0xc4>
    10a0:	83 32       	cpi	r24, 0x23	; 35
    10a2:	71 f4       	brne	.+28     	; 0x10c0 <vfprintf+0xd0>
    10a4:	0b c0       	rjmp	.+22     	; 0x10bc <vfprintf+0xcc>
    10a6:	8d 32       	cpi	r24, 0x2D	; 45
    10a8:	39 f0       	breq	.+14     	; 0x10b8 <vfprintf+0xc8>
    10aa:	80 33       	cpi	r24, 0x30	; 48
    10ac:	49 f4       	brne	.+18     	; 0x10c0 <vfprintf+0xd0>
    10ae:	11 60       	ori	r17, 0x01	; 1
    10b0:	2c c0       	rjmp	.+88     	; 0x110a <__stack+0xb>
    10b2:	12 60       	ori	r17, 0x02	; 2
    10b4:	14 60       	ori	r17, 0x04	; 4
    10b6:	29 c0       	rjmp	.+82     	; 0x110a <__stack+0xb>
    10b8:	18 60       	ori	r17, 0x08	; 8
    10ba:	27 c0       	rjmp	.+78     	; 0x110a <__stack+0xb>
    10bc:	10 61       	ori	r17, 0x10	; 16
    10be:	25 c0       	rjmp	.+74     	; 0x110a <__stack+0xb>
    10c0:	17 fd       	sbrc	r17, 7
    10c2:	2e c0       	rjmp	.+92     	; 0x1120 <__stack+0x21>
    10c4:	28 2f       	mov	r18, r24
    10c6:	20 53       	subi	r18, 0x30	; 48
    10c8:	2a 30       	cpi	r18, 0x0A	; 10
    10ca:	98 f4       	brcc	.+38     	; 0x10f2 <vfprintf+0x102>
    10cc:	16 ff       	sbrs	r17, 6
    10ce:	08 c0       	rjmp	.+16     	; 0x10e0 <vfprintf+0xf0>
    10d0:	8f 2d       	mov	r24, r15
    10d2:	88 0f       	add	r24, r24
    10d4:	f8 2e       	mov	r15, r24
    10d6:	ff 0c       	add	r15, r15
    10d8:	ff 0c       	add	r15, r15
    10da:	f8 0e       	add	r15, r24
    10dc:	f2 0e       	add	r15, r18
    10de:	15 c0       	rjmp	.+42     	; 0x110a <__stack+0xb>
    10e0:	8d 2d       	mov	r24, r13
    10e2:	88 0f       	add	r24, r24
    10e4:	d8 2e       	mov	r13, r24
    10e6:	dd 0c       	add	r13, r13
    10e8:	dd 0c       	add	r13, r13
    10ea:	d8 0e       	add	r13, r24
    10ec:	d2 0e       	add	r13, r18
    10ee:	10 62       	ori	r17, 0x20	; 32
    10f0:	0c c0       	rjmp	.+24     	; 0x110a <__stack+0xb>
    10f2:	8e 32       	cpi	r24, 0x2E	; 46
    10f4:	21 f4       	brne	.+8      	; 0x10fe <vfprintf+0x10e>
    10f6:	16 fd       	sbrc	r17, 6
    10f8:	11 c3       	rjmp	.+1570   	; 0x171c <__stack+0x61d>
    10fa:	10 64       	ori	r17, 0x40	; 64
    10fc:	06 c0       	rjmp	.+12     	; 0x110a <__stack+0xb>
    10fe:	8c 36       	cpi	r24, 0x6C	; 108
    1100:	11 f4       	brne	.+4      	; 0x1106 <__stack+0x7>
    1102:	10 68       	ori	r17, 0x80	; 128
    1104:	02 c0       	rjmp	.+4      	; 0x110a <__stack+0xb>
    1106:	88 36       	cpi	r24, 0x68	; 104
    1108:	59 f4       	brne	.+22     	; 0x1120 <__stack+0x21>
    110a:	ee 85       	ldd	r30, Y+14	; 0x0e
    110c:	ff 85       	ldd	r31, Y+15	; 0x0f
    110e:	93 fd       	sbrc	r25, 3
    1110:	85 91       	lpm	r24, Z+
    1112:	93 ff       	sbrs	r25, 3
    1114:	81 91       	ld	r24, Z+
    1116:	ff 87       	std	Y+15, r31	; 0x0f
    1118:	ee 87       	std	Y+14, r30	; 0x0e
    111a:	88 23       	and	r24, r24
    111c:	09 f0       	breq	.+2      	; 0x1120 <__stack+0x21>
    111e:	b8 cf       	rjmp	.-144    	; 0x1090 <vfprintf+0xa0>
    1120:	98 2f       	mov	r25, r24
    1122:	95 54       	subi	r25, 0x45	; 69
    1124:	93 30       	cpi	r25, 0x03	; 3
    1126:	18 f4       	brcc	.+6      	; 0x112e <__stack+0x2f>
    1128:	10 61       	ori	r17, 0x10	; 16
    112a:	80 5e       	subi	r24, 0xE0	; 224
    112c:	06 c0       	rjmp	.+12     	; 0x113a <__stack+0x3b>
    112e:	98 2f       	mov	r25, r24
    1130:	95 56       	subi	r25, 0x65	; 101
    1132:	93 30       	cpi	r25, 0x03	; 3
    1134:	08 f0       	brcs	.+2      	; 0x1138 <__stack+0x39>
    1136:	a2 c1       	rjmp	.+836    	; 0x147c <__stack+0x37d>
    1138:	1f 7e       	andi	r17, 0xEF	; 239
    113a:	16 fd       	sbrc	r17, 6
    113c:	02 c0       	rjmp	.+4      	; 0x1142 <__stack+0x43>
    113e:	e6 e0       	ldi	r30, 0x06	; 6
    1140:	fe 2e       	mov	r15, r30
    1142:	1f 73       	andi	r17, 0x3F	; 63
    1144:	85 36       	cpi	r24, 0x65	; 101
    1146:	11 f4       	brne	.+4      	; 0x114c <__stack+0x4d>
    1148:	10 64       	ori	r17, 0x40	; 64
    114a:	06 c0       	rjmp	.+12     	; 0x1158 <__stack+0x59>
    114c:	86 36       	cpi	r24, 0x66	; 102
    114e:	11 f4       	brne	.+4      	; 0x1154 <__stack+0x55>
    1150:	10 68       	ori	r17, 0x80	; 128
    1152:	02 c0       	rjmp	.+4      	; 0x1158 <__stack+0x59>
    1154:	f1 10       	cpse	r15, r1
    1156:	fa 94       	dec	r15
    1158:	17 ff       	sbrs	r17, 7
    115a:	07 c0       	rjmp	.+14     	; 0x116a <__stack+0x6b>
    115c:	fb e3       	ldi	r31, 0x3B	; 59
    115e:	ff 15       	cp	r31, r15
    1160:	48 f0       	brcs	.+18     	; 0x1174 <__stack+0x75>
    1162:	ef 2c       	mov	r14, r15
    1164:	e3 94       	inc	r14
    1166:	27 e0       	ldi	r18, 0x07	; 7
    1168:	0d c0       	rjmp	.+26     	; 0x1184 <__stack+0x85>
    116a:	27 e0       	ldi	r18, 0x07	; 7
    116c:	2f 15       	cp	r18, r15
    116e:	30 f0       	brcs	.+12     	; 0x117c <__stack+0x7d>
    1170:	2f 2d       	mov	r18, r15
    1172:	07 c0       	rjmp	.+14     	; 0x1182 <__stack+0x83>
    1174:	27 e0       	ldi	r18, 0x07	; 7
    1176:	7c e3       	ldi	r23, 0x3C	; 60
    1178:	e7 2e       	mov	r14, r23
    117a:	04 c0       	rjmp	.+8      	; 0x1184 <__stack+0x85>
    117c:	27 e0       	ldi	r18, 0x07	; 7
    117e:	67 e0       	ldi	r22, 0x07	; 7
    1180:	f6 2e       	mov	r15, r22
    1182:	ee 24       	eor	r14, r14
    1184:	ca 01       	movw	r24, r20
    1186:	04 96       	adiw	r24, 0x04	; 4
    1188:	9d 87       	std	Y+13, r25	; 0x0d
    118a:	8c 87       	std	Y+12, r24	; 0x0c
    118c:	fa 01       	movw	r30, r20
    118e:	60 81       	ld	r22, Z
    1190:	71 81       	ldd	r23, Z+1	; 0x01
    1192:	82 81       	ldd	r24, Z+2	; 0x02
    1194:	93 81       	ldd	r25, Z+3	; 0x03
    1196:	a1 01       	movw	r20, r2
    1198:	0e 2d       	mov	r16, r14
    119a:	0e 94 e0 0b 	call	0x17c0	; 0x17c0 <__ftoa_engine>
    119e:	5c 01       	movw	r10, r24
    11a0:	c9 80       	ldd	r12, Y+1	; 0x01
    11a2:	2c 2d       	mov	r18, r12
    11a4:	30 e0       	ldi	r19, 0x00	; 0
    11a6:	39 8b       	std	Y+17, r19	; 0x11
    11a8:	28 8b       	std	Y+16, r18	; 0x10
    11aa:	c0 fe       	sbrs	r12, 0
    11ac:	03 c0       	rjmp	.+6      	; 0x11b4 <__stack+0xb5>
    11ae:	38 89       	ldd	r19, Y+16	; 0x10
    11b0:	33 ff       	sbrs	r19, 3
    11b2:	06 c0       	rjmp	.+12     	; 0x11c0 <__stack+0xc1>
    11b4:	11 fd       	sbrc	r17, 1
    11b6:	06 c0       	rjmp	.+12     	; 0x11c4 <__stack+0xc5>
    11b8:	12 ff       	sbrs	r17, 2
    11ba:	06 c0       	rjmp	.+12     	; 0x11c8 <__stack+0xc9>
    11bc:	00 e2       	ldi	r16, 0x20	; 32
    11be:	05 c0       	rjmp	.+10     	; 0x11ca <__stack+0xcb>
    11c0:	0d e2       	ldi	r16, 0x2D	; 45
    11c2:	03 c0       	rjmp	.+6      	; 0x11ca <__stack+0xcb>
    11c4:	0b e2       	ldi	r16, 0x2B	; 43
    11c6:	01 c0       	rjmp	.+2      	; 0x11ca <__stack+0xcb>
    11c8:	00 e0       	ldi	r16, 0x00	; 0
    11ca:	88 89       	ldd	r24, Y+16	; 0x10
    11cc:	99 89       	ldd	r25, Y+17	; 0x11
    11ce:	8c 70       	andi	r24, 0x0C	; 12
    11d0:	90 70       	andi	r25, 0x00	; 0
    11d2:	00 97       	sbiw	r24, 0x00	; 0
    11d4:	09 f4       	brne	.+2      	; 0x11d8 <__stack+0xd9>
    11d6:	3c c0       	rjmp	.+120    	; 0x1250 <__stack+0x151>
    11d8:	00 23       	and	r16, r16
    11da:	11 f0       	breq	.+4      	; 0x11e0 <__stack+0xe1>
    11dc:	84 e0       	ldi	r24, 0x04	; 4
    11de:	01 c0       	rjmp	.+2      	; 0x11e2 <__stack+0xe3>
    11e0:	83 e0       	ldi	r24, 0x03	; 3
    11e2:	8d 15       	cp	r24, r13
    11e4:	58 f4       	brcc	.+22     	; 0x11fc <__stack+0xfd>
    11e6:	d8 1a       	sub	r13, r24
    11e8:	13 fd       	sbrc	r17, 3
    11ea:	09 c0       	rjmp	.+18     	; 0x11fe <__stack+0xff>
    11ec:	80 e2       	ldi	r24, 0x20	; 32
    11ee:	90 e0       	ldi	r25, 0x00	; 0
    11f0:	b4 01       	movw	r22, r8
    11f2:	0e 94 18 0d 	call	0x1a30	; 0x1a30 <fputc>
    11f6:	da 94       	dec	r13
    11f8:	c9 f7       	brne	.-14     	; 0x11ec <__stack+0xed>
    11fa:	01 c0       	rjmp	.+2      	; 0x11fe <__stack+0xff>
    11fc:	dd 24       	eor	r13, r13
    11fe:	00 23       	and	r16, r16
    1200:	29 f0       	breq	.+10     	; 0x120c <__stack+0x10d>
    1202:	80 2f       	mov	r24, r16
    1204:	90 e0       	ldi	r25, 0x00	; 0
    1206:	b4 01       	movw	r22, r8
    1208:	0e 94 18 0d 	call	0x1a30	; 0x1a30 <fputc>
    120c:	88 89       	ldd	r24, Y+16	; 0x10
    120e:	83 fd       	sbrc	r24, 3
    1210:	05 c0       	rjmp	.+10     	; 0x121c <__stack+0x11d>
    1212:	30 e9       	ldi	r19, 0x90	; 144
    1214:	e3 2e       	mov	r14, r19
    1216:	30 e0       	ldi	r19, 0x00	; 0
    1218:	f3 2e       	mov	r15, r19
    121a:	11 c0       	rjmp	.+34     	; 0x123e <__stack+0x13f>
    121c:	2c e8       	ldi	r18, 0x8C	; 140
    121e:	e2 2e       	mov	r14, r18
    1220:	20 e0       	ldi	r18, 0x00	; 0
    1222:	f2 2e       	mov	r15, r18
    1224:	0c c0       	rjmp	.+24     	; 0x123e <__stack+0x13f>
    1226:	01 15       	cp	r16, r1
    1228:	11 05       	cpc	r17, r1
    122a:	09 f0       	breq	.+2      	; 0x122e <__stack+0x12f>
    122c:	80 52       	subi	r24, 0x20	; 32
    122e:	90 e0       	ldi	r25, 0x00	; 0
    1230:	b4 01       	movw	r22, r8
    1232:	0e 94 18 0d 	call	0x1a30	; 0x1a30 <fputc>
    1236:	08 94       	sec
    1238:	e1 1c       	adc	r14, r1
    123a:	f1 1c       	adc	r15, r1
    123c:	04 c0       	rjmp	.+8      	; 0x1246 <__stack+0x147>
    123e:	01 2f       	mov	r16, r17
    1240:	10 e0       	ldi	r17, 0x00	; 0
    1242:	00 71       	andi	r16, 0x10	; 16
    1244:	10 70       	andi	r17, 0x00	; 0
    1246:	f7 01       	movw	r30, r14
    1248:	84 91       	lpm	r24, Z
    124a:	88 23       	and	r24, r24
    124c:	61 f7       	brne	.-40     	; 0x1226 <__stack+0x127>
    124e:	63 c2       	rjmp	.+1222   	; 0x1716 <__stack+0x617>
    1250:	17 ff       	sbrs	r17, 7
    1252:	0e c0       	rjmp	.+28     	; 0x1270 <__stack+0x171>
    1254:	ea 0c       	add	r14, r10
    1256:	f8 89       	ldd	r31, Y+16	; 0x10
    1258:	f4 ff       	sbrs	r31, 4
    125a:	04 c0       	rjmp	.+8      	; 0x1264 <__stack+0x165>
    125c:	8a 81       	ldd	r24, Y+2	; 0x02
    125e:	81 33       	cpi	r24, 0x31	; 49
    1260:	09 f4       	brne	.+2      	; 0x1264 <__stack+0x165>
    1262:	ea 94       	dec	r14
    1264:	1e 14       	cp	r1, r14
    1266:	4c f5       	brge	.+82     	; 0x12ba <__stack+0x1bb>
    1268:	28 e0       	ldi	r18, 0x08	; 8
    126a:	2e 15       	cp	r18, r14
    126c:	48 f1       	brcs	.+82     	; 0x12c0 <__stack+0x1c1>
    126e:	2c c0       	rjmp	.+88     	; 0x12c8 <__stack+0x1c9>
    1270:	16 fd       	sbrc	r17, 6
    1272:	2a c0       	rjmp	.+84     	; 0x12c8 <__stack+0x1c9>
    1274:	8f 2d       	mov	r24, r15
    1276:	90 e0       	ldi	r25, 0x00	; 0
    1278:	8a 15       	cp	r24, r10
    127a:	9b 05       	cpc	r25, r11
    127c:	44 f0       	brlt	.+16     	; 0x128e <__stack+0x18f>
    127e:	3c ef       	ldi	r19, 0xFC	; 252
    1280:	a3 16       	cp	r10, r19
    1282:	3f ef       	ldi	r19, 0xFF	; 255
    1284:	b3 06       	cpc	r11, r19
    1286:	1c f0       	brlt	.+6      	; 0x128e <__stack+0x18f>
    1288:	10 68       	ori	r17, 0x80	; 128
    128a:	01 c0       	rjmp	.+2      	; 0x128e <__stack+0x18f>
    128c:	fa 94       	dec	r15
    128e:	ff 20       	and	r15, r15
    1290:	49 f0       	breq	.+18     	; 0x12a4 <__stack+0x1a5>
    1292:	e2 e0       	ldi	r30, 0x02	; 2
    1294:	f0 e0       	ldi	r31, 0x00	; 0
    1296:	ec 0f       	add	r30, r28
    1298:	fd 1f       	adc	r31, r29
    129a:	ef 0d       	add	r30, r15
    129c:	f1 1d       	adc	r31, r1
    129e:	80 81       	ld	r24, Z
    12a0:	80 33       	cpi	r24, 0x30	; 48
    12a2:	a1 f3       	breq	.-24     	; 0x128c <__stack+0x18d>
    12a4:	17 ff       	sbrs	r17, 7
    12a6:	10 c0       	rjmp	.+32     	; 0x12c8 <__stack+0x1c9>
    12a8:	ef 2c       	mov	r14, r15
    12aa:	e3 94       	inc	r14
    12ac:	8f 2d       	mov	r24, r15
    12ae:	90 e0       	ldi	r25, 0x00	; 0
    12b0:	a8 16       	cp	r10, r24
    12b2:	b9 06       	cpc	r11, r25
    12b4:	44 f4       	brge	.+16     	; 0x12c6 <__stack+0x1c7>
    12b6:	fa 18       	sub	r15, r10
    12b8:	07 c0       	rjmp	.+14     	; 0x12c8 <__stack+0x1c9>
    12ba:	ee 24       	eor	r14, r14
    12bc:	e3 94       	inc	r14
    12be:	04 c0       	rjmp	.+8      	; 0x12c8 <__stack+0x1c9>
    12c0:	98 e0       	ldi	r25, 0x08	; 8
    12c2:	e9 2e       	mov	r14, r25
    12c4:	01 c0       	rjmp	.+2      	; 0x12c8 <__stack+0x1c9>
    12c6:	ff 24       	eor	r15, r15
    12c8:	17 ff       	sbrs	r17, 7
    12ca:	07 c0       	rjmp	.+14     	; 0x12da <__stack+0x1db>
    12cc:	1a 14       	cp	r1, r10
    12ce:	1b 04       	cpc	r1, r11
    12d0:	3c f4       	brge	.+14     	; 0x12e0 <__stack+0x1e1>
    12d2:	95 01       	movw	r18, r10
    12d4:	2f 5f       	subi	r18, 0xFF	; 255
    12d6:	3f 4f       	sbci	r19, 0xFF	; 255
    12d8:	05 c0       	rjmp	.+10     	; 0x12e4 <__stack+0x1e5>
    12da:	25 e0       	ldi	r18, 0x05	; 5
    12dc:	30 e0       	ldi	r19, 0x00	; 0
    12de:	02 c0       	rjmp	.+4      	; 0x12e4 <__stack+0x1e5>
    12e0:	21 e0       	ldi	r18, 0x01	; 1
    12e2:	30 e0       	ldi	r19, 0x00	; 0
    12e4:	00 23       	and	r16, r16
    12e6:	11 f0       	breq	.+4      	; 0x12ec <__stack+0x1ed>
    12e8:	2f 5f       	subi	r18, 0xFF	; 255
    12ea:	3f 4f       	sbci	r19, 0xFF	; 255
    12ec:	ff 20       	and	r15, r15
    12ee:	29 f0       	breq	.+10     	; 0x12fa <__stack+0x1fb>
    12f0:	8f 2d       	mov	r24, r15
    12f2:	90 e0       	ldi	r25, 0x00	; 0
    12f4:	01 96       	adiw	r24, 0x01	; 1
    12f6:	28 0f       	add	r18, r24
    12f8:	39 1f       	adc	r19, r25
    12fa:	8d 2d       	mov	r24, r13
    12fc:	90 e0       	ldi	r25, 0x00	; 0
    12fe:	28 17       	cp	r18, r24
    1300:	39 07       	cpc	r19, r25
    1302:	14 f4       	brge	.+4      	; 0x1308 <__stack+0x209>
    1304:	d2 1a       	sub	r13, r18
    1306:	01 c0       	rjmp	.+2      	; 0x130a <__stack+0x20b>
    1308:	dd 24       	eor	r13, r13
    130a:	61 2e       	mov	r6, r17
    130c:	77 24       	eor	r7, r7
    130e:	c3 01       	movw	r24, r6
    1310:	89 70       	andi	r24, 0x09	; 9
    1312:	90 70       	andi	r25, 0x00	; 0
    1314:	00 97       	sbiw	r24, 0x00	; 0
    1316:	49 f4       	brne	.+18     	; 0x132a <__stack+0x22b>
    1318:	06 c0       	rjmp	.+12     	; 0x1326 <__stack+0x227>
    131a:	80 e2       	ldi	r24, 0x20	; 32
    131c:	90 e0       	ldi	r25, 0x00	; 0
    131e:	b4 01       	movw	r22, r8
    1320:	0e 94 18 0d 	call	0x1a30	; 0x1a30 <fputc>
    1324:	da 94       	dec	r13
    1326:	dd 20       	and	r13, r13
    1328:	c1 f7       	brne	.-16     	; 0x131a <__stack+0x21b>
    132a:	00 23       	and	r16, r16
    132c:	29 f0       	breq	.+10     	; 0x1338 <__stack+0x239>
    132e:	80 2f       	mov	r24, r16
    1330:	90 e0       	ldi	r25, 0x00	; 0
    1332:	b4 01       	movw	r22, r8
    1334:	0e 94 18 0d 	call	0x1a30	; 0x1a30 <fputc>
    1338:	63 fc       	sbrc	r6, 3
    133a:	09 c0       	rjmp	.+18     	; 0x134e <__stack+0x24f>
    133c:	06 c0       	rjmp	.+12     	; 0x134a <__stack+0x24b>
    133e:	80 e3       	ldi	r24, 0x30	; 48
    1340:	90 e0       	ldi	r25, 0x00	; 0
    1342:	b4 01       	movw	r22, r8
    1344:	0e 94 18 0d 	call	0x1a30	; 0x1a30 <fputc>
    1348:	da 94       	dec	r13
    134a:	dd 20       	and	r13, r13
    134c:	c1 f7       	brne	.-16     	; 0x133e <__stack+0x23f>
    134e:	17 ff       	sbrs	r17, 7
    1350:	48 c0       	rjmp	.+144    	; 0x13e2 <__stack+0x2e3>
    1352:	85 01       	movw	r16, r10
    1354:	b7 fe       	sbrs	r11, 7
    1356:	02 c0       	rjmp	.+4      	; 0x135c <__stack+0x25d>
    1358:	00 e0       	ldi	r16, 0x00	; 0
    135a:	10 e0       	ldi	r17, 0x00	; 0
    135c:	66 24       	eor	r6, r6
    135e:	77 24       	eor	r7, r7
    1360:	95 01       	movw	r18, r10
    1362:	2e 19       	sub	r18, r14
    1364:	31 09       	sbc	r19, r1
    1366:	3b 8b       	std	Y+19, r19	; 0x13
    1368:	2a 8b       	std	Y+18, r18	; 0x12
    136a:	25 01       	movw	r4, r10
    136c:	40 1a       	sub	r4, r16
    136e:	51 0a       	sbc	r5, r17
    1370:	42 0c       	add	r4, r2
    1372:	53 1c       	adc	r5, r3
    1374:	6f 2d       	mov	r22, r15
    1376:	70 e0       	ldi	r23, 0x00	; 0
    1378:	ee 24       	eor	r14, r14
    137a:	ff 24       	eor	r15, r15
    137c:	e6 1a       	sub	r14, r22
    137e:	f7 0a       	sbc	r15, r23
    1380:	3f ef       	ldi	r19, 0xFF	; 255
    1382:	0f 3f       	cpi	r16, 0xFF	; 255
    1384:	13 07       	cpc	r17, r19
    1386:	29 f4       	brne	.+10     	; 0x1392 <__stack+0x293>
    1388:	8e e2       	ldi	r24, 0x2E	; 46
    138a:	90 e0       	ldi	r25, 0x00	; 0
    138c:	b4 01       	movw	r22, r8
    138e:	0e 94 18 0d 	call	0x1a30	; 0x1a30 <fputc>
    1392:	a0 16       	cp	r10, r16
    1394:	b1 06       	cpc	r11, r17
    1396:	54 f0       	brlt	.+20     	; 0x13ac <__stack+0x2ad>
    1398:	2a 89       	ldd	r18, Y+18	; 0x12
    139a:	3b 89       	ldd	r19, Y+19	; 0x13
    139c:	20 17       	cp	r18, r16
    139e:	31 07       	cpc	r19, r17
    13a0:	2c f4       	brge	.+10     	; 0x13ac <__stack+0x2ad>
    13a2:	f2 01       	movw	r30, r4
    13a4:	e6 0d       	add	r30, r6
    13a6:	f7 1d       	adc	r31, r7
    13a8:	81 81       	ldd	r24, Z+1	; 0x01
    13aa:	01 c0       	rjmp	.+2      	; 0x13ae <__stack+0x2af>
    13ac:	80 e3       	ldi	r24, 0x30	; 48
    13ae:	01 50       	subi	r16, 0x01	; 1
    13b0:	10 40       	sbci	r17, 0x00	; 0
    13b2:	08 94       	sec
    13b4:	61 1c       	adc	r6, r1
    13b6:	71 1c       	adc	r7, r1
    13b8:	0e 15       	cp	r16, r14
    13ba:	1f 05       	cpc	r17, r15
    13bc:	2c f0       	brlt	.+10     	; 0x13c8 <__stack+0x2c9>
    13be:	90 e0       	ldi	r25, 0x00	; 0
    13c0:	b4 01       	movw	r22, r8
    13c2:	0e 94 18 0d 	call	0x1a30	; 0x1a30 <fputc>
    13c6:	dc cf       	rjmp	.-72     	; 0x1380 <__stack+0x281>
    13c8:	0a 15       	cp	r16, r10
    13ca:	1b 05       	cpc	r17, r11
    13cc:	41 f4       	brne	.+16     	; 0x13de <__stack+0x2df>
    13ce:	9a 81       	ldd	r25, Y+2	; 0x02
    13d0:	96 33       	cpi	r25, 0x36	; 54
    13d2:	20 f4       	brcc	.+8      	; 0x13dc <__stack+0x2dd>
    13d4:	95 33       	cpi	r25, 0x35	; 53
    13d6:	19 f4       	brne	.+6      	; 0x13de <__stack+0x2df>
    13d8:	38 89       	ldd	r19, Y+16	; 0x10
    13da:	34 ff       	sbrs	r19, 4
    13dc:	81 e3       	ldi	r24, 0x31	; 49
    13de:	90 e0       	ldi	r25, 0x00	; 0
    13e0:	49 c0       	rjmp	.+146    	; 0x1474 <__stack+0x375>
    13e2:	8a 81       	ldd	r24, Y+2	; 0x02
    13e4:	81 33       	cpi	r24, 0x31	; 49
    13e6:	11 f0       	breq	.+4      	; 0x13ec <__stack+0x2ed>
    13e8:	9f ee       	ldi	r25, 0xEF	; 239
    13ea:	c9 22       	and	r12, r25
    13ec:	90 e0       	ldi	r25, 0x00	; 0
    13ee:	b4 01       	movw	r22, r8
    13f0:	0e 94 18 0d 	call	0x1a30	; 0x1a30 <fputc>
    13f4:	ff 20       	and	r15, r15
    13f6:	89 f0       	breq	.+34     	; 0x141a <__stack+0x31b>
    13f8:	8e e2       	ldi	r24, 0x2E	; 46
    13fa:	90 e0       	ldi	r25, 0x00	; 0
    13fc:	b4 01       	movw	r22, r8
    13fe:	0e 94 18 0d 	call	0x1a30	; 0x1a30 <fputc>
    1402:	12 e0       	ldi	r17, 0x02	; 2
    1404:	f1 01       	movw	r30, r2
    1406:	e1 0f       	add	r30, r17
    1408:	f1 1d       	adc	r31, r1
    140a:	1f 5f       	subi	r17, 0xFF	; 255
    140c:	80 81       	ld	r24, Z
    140e:	90 e0       	ldi	r25, 0x00	; 0
    1410:	b4 01       	movw	r22, r8
    1412:	0e 94 18 0d 	call	0x1a30	; 0x1a30 <fputc>
    1416:	fa 94       	dec	r15
    1418:	a9 f7       	brne	.-22     	; 0x1404 <__stack+0x305>
    141a:	64 fe       	sbrs	r6, 4
    141c:	03 c0       	rjmp	.+6      	; 0x1424 <__stack+0x325>
    141e:	85 e4       	ldi	r24, 0x45	; 69
    1420:	90 e0       	ldi	r25, 0x00	; 0
    1422:	02 c0       	rjmp	.+4      	; 0x1428 <__stack+0x329>
    1424:	85 e6       	ldi	r24, 0x65	; 101
    1426:	90 e0       	ldi	r25, 0x00	; 0
    1428:	b4 01       	movw	r22, r8
    142a:	0e 94 18 0d 	call	0x1a30	; 0x1a30 <fputc>
    142e:	b7 fc       	sbrc	r11, 7
    1430:	05 c0       	rjmp	.+10     	; 0x143c <__stack+0x33d>
    1432:	a1 14       	cp	r10, r1
    1434:	b1 04       	cpc	r11, r1
    1436:	41 f4       	brne	.+16     	; 0x1448 <__stack+0x349>
    1438:	c4 fe       	sbrs	r12, 4
    143a:	06 c0       	rjmp	.+12     	; 0x1448 <__stack+0x349>
    143c:	b0 94       	com	r11
    143e:	a1 94       	neg	r10
    1440:	b1 08       	sbc	r11, r1
    1442:	b3 94       	inc	r11
    1444:	8d e2       	ldi	r24, 0x2D	; 45
    1446:	01 c0       	rjmp	.+2      	; 0x144a <__stack+0x34b>
    1448:	8b e2       	ldi	r24, 0x2B	; 43
    144a:	90 e0       	ldi	r25, 0x00	; 0
    144c:	b4 01       	movw	r22, r8
    144e:	0e 94 18 0d 	call	0x1a30	; 0x1a30 <fputc>
    1452:	80 e3       	ldi	r24, 0x30	; 48
    1454:	05 c0       	rjmp	.+10     	; 0x1460 <__stack+0x361>
    1456:	8f 5f       	subi	r24, 0xFF	; 255
    1458:	e6 ef       	ldi	r30, 0xF6	; 246
    145a:	ff ef       	ldi	r31, 0xFF	; 255
    145c:	ae 0e       	add	r10, r30
    145e:	bf 1e       	adc	r11, r31
    1460:	fa e0       	ldi	r31, 0x0A	; 10
    1462:	af 16       	cp	r10, r31
    1464:	b1 04       	cpc	r11, r1
    1466:	bc f7       	brge	.-18     	; 0x1456 <__stack+0x357>
    1468:	90 e0       	ldi	r25, 0x00	; 0
    146a:	b4 01       	movw	r22, r8
    146c:	0e 94 18 0d 	call	0x1a30	; 0x1a30 <fputc>
    1470:	c5 01       	movw	r24, r10
    1472:	c0 96       	adiw	r24, 0x30	; 48
    1474:	b4 01       	movw	r22, r8
    1476:	0e 94 18 0d 	call	0x1a30	; 0x1a30 <fputc>
    147a:	4d c1       	rjmp	.+666    	; 0x1716 <__stack+0x617>
    147c:	83 36       	cpi	r24, 0x63	; 99
    147e:	31 f0       	breq	.+12     	; 0x148c <__stack+0x38d>
    1480:	83 37       	cpi	r24, 0x73	; 115
    1482:	89 f0       	breq	.+34     	; 0x14a6 <__stack+0x3a7>
    1484:	83 35       	cpi	r24, 0x53	; 83
    1486:	09 f0       	breq	.+2      	; 0x148a <__stack+0x38b>
    1488:	59 c0       	rjmp	.+178    	; 0x153c <__stack+0x43d>
    148a:	22 c0       	rjmp	.+68     	; 0x14d0 <__stack+0x3d1>
    148c:	9a 01       	movw	r18, r20
    148e:	2e 5f       	subi	r18, 0xFE	; 254
    1490:	3f 4f       	sbci	r19, 0xFF	; 255
    1492:	3d 87       	std	Y+13, r19	; 0x0d
    1494:	2c 87       	std	Y+12, r18	; 0x0c
    1496:	fa 01       	movw	r30, r20
    1498:	80 81       	ld	r24, Z
    149a:	89 83       	std	Y+1, r24	; 0x01
    149c:	81 e0       	ldi	r24, 0x01	; 1
    149e:	e8 2e       	mov	r14, r24
    14a0:	f1 2c       	mov	r15, r1
    14a2:	51 01       	movw	r10, r2
    14a4:	13 c0       	rjmp	.+38     	; 0x14cc <__stack+0x3cd>
    14a6:	9a 01       	movw	r18, r20
    14a8:	2e 5f       	subi	r18, 0xFE	; 254
    14aa:	3f 4f       	sbci	r19, 0xFF	; 255
    14ac:	3d 87       	std	Y+13, r19	; 0x0d
    14ae:	2c 87       	std	Y+12, r18	; 0x0c
    14b0:	fa 01       	movw	r30, r20
    14b2:	a0 80       	ld	r10, Z
    14b4:	b1 80       	ldd	r11, Z+1	; 0x01
    14b6:	16 ff       	sbrs	r17, 6
    14b8:	03 c0       	rjmp	.+6      	; 0x14c0 <__stack+0x3c1>
    14ba:	6f 2d       	mov	r22, r15
    14bc:	70 e0       	ldi	r23, 0x00	; 0
    14be:	02 c0       	rjmp	.+4      	; 0x14c4 <__stack+0x3c5>
    14c0:	6f ef       	ldi	r22, 0xFF	; 255
    14c2:	7f ef       	ldi	r23, 0xFF	; 255
    14c4:	c5 01       	movw	r24, r10
    14c6:	0e 94 c3 0c 	call	0x1986	; 0x1986 <strnlen>
    14ca:	7c 01       	movw	r14, r24
    14cc:	1f 77       	andi	r17, 0x7F	; 127
    14ce:	14 c0       	rjmp	.+40     	; 0x14f8 <__stack+0x3f9>
    14d0:	9a 01       	movw	r18, r20
    14d2:	2e 5f       	subi	r18, 0xFE	; 254
    14d4:	3f 4f       	sbci	r19, 0xFF	; 255
    14d6:	3d 87       	std	Y+13, r19	; 0x0d
    14d8:	2c 87       	std	Y+12, r18	; 0x0c
    14da:	fa 01       	movw	r30, r20
    14dc:	a0 80       	ld	r10, Z
    14de:	b1 80       	ldd	r11, Z+1	; 0x01
    14e0:	16 ff       	sbrs	r17, 6
    14e2:	03 c0       	rjmp	.+6      	; 0x14ea <__stack+0x3eb>
    14e4:	6f 2d       	mov	r22, r15
    14e6:	70 e0       	ldi	r23, 0x00	; 0
    14e8:	02 c0       	rjmp	.+4      	; 0x14ee <__stack+0x3ef>
    14ea:	6f ef       	ldi	r22, 0xFF	; 255
    14ec:	7f ef       	ldi	r23, 0xFF	; 255
    14ee:	c5 01       	movw	r24, r10
    14f0:	0e 94 b8 0c 	call	0x1970	; 0x1970 <strnlen_P>
    14f4:	7c 01       	movw	r14, r24
    14f6:	10 68       	ori	r17, 0x80	; 128
    14f8:	13 fd       	sbrc	r17, 3
    14fa:	1c c0       	rjmp	.+56     	; 0x1534 <__stack+0x435>
    14fc:	06 c0       	rjmp	.+12     	; 0x150a <__stack+0x40b>
    14fe:	80 e2       	ldi	r24, 0x20	; 32
    1500:	90 e0       	ldi	r25, 0x00	; 0
    1502:	b4 01       	movw	r22, r8
    1504:	0e 94 18 0d 	call	0x1a30	; 0x1a30 <fputc>
    1508:	da 94       	dec	r13
    150a:	8d 2d       	mov	r24, r13
    150c:	90 e0       	ldi	r25, 0x00	; 0
    150e:	e8 16       	cp	r14, r24
    1510:	f9 06       	cpc	r15, r25
    1512:	a8 f3       	brcs	.-22     	; 0x14fe <__stack+0x3ff>
    1514:	0f c0       	rjmp	.+30     	; 0x1534 <__stack+0x435>
    1516:	f5 01       	movw	r30, r10
    1518:	17 fd       	sbrc	r17, 7
    151a:	85 91       	lpm	r24, Z+
    151c:	17 ff       	sbrs	r17, 7
    151e:	81 91       	ld	r24, Z+
    1520:	5f 01       	movw	r10, r30
    1522:	90 e0       	ldi	r25, 0x00	; 0
    1524:	b4 01       	movw	r22, r8
    1526:	0e 94 18 0d 	call	0x1a30	; 0x1a30 <fputc>
    152a:	d1 10       	cpse	r13, r1
    152c:	da 94       	dec	r13
    152e:	08 94       	sec
    1530:	e1 08       	sbc	r14, r1
    1532:	f1 08       	sbc	r15, r1
    1534:	e1 14       	cp	r14, r1
    1536:	f1 04       	cpc	r15, r1
    1538:	71 f7       	brne	.-36     	; 0x1516 <__stack+0x417>
    153a:	ed c0       	rjmp	.+474    	; 0x1716 <__stack+0x617>
    153c:	84 36       	cpi	r24, 0x64	; 100
    153e:	11 f0       	breq	.+4      	; 0x1544 <__stack+0x445>
    1540:	89 36       	cpi	r24, 0x69	; 105
    1542:	71 f5       	brne	.+92     	; 0x15a0 <__stack+0x4a1>
    1544:	9a 01       	movw	r18, r20
    1546:	17 ff       	sbrs	r17, 7
    1548:	0a c0       	rjmp	.+20     	; 0x155e <__stack+0x45f>
    154a:	2c 5f       	subi	r18, 0xFC	; 252
    154c:	3f 4f       	sbci	r19, 0xFF	; 255
    154e:	3d 87       	std	Y+13, r19	; 0x0d
    1550:	2c 87       	std	Y+12, r18	; 0x0c
    1552:	fa 01       	movw	r30, r20
    1554:	80 81       	ld	r24, Z
    1556:	91 81       	ldd	r25, Z+1	; 0x01
    1558:	a2 81       	ldd	r26, Z+2	; 0x02
    155a:	b3 81       	ldd	r27, Z+3	; 0x03
    155c:	0b c0       	rjmp	.+22     	; 0x1574 <__stack+0x475>
    155e:	2e 5f       	subi	r18, 0xFE	; 254
    1560:	3f 4f       	sbci	r19, 0xFF	; 255
    1562:	3d 87       	std	Y+13, r19	; 0x0d
    1564:	2c 87       	std	Y+12, r18	; 0x0c
    1566:	fa 01       	movw	r30, r20
    1568:	80 81       	ld	r24, Z
    156a:	91 81       	ldd	r25, Z+1	; 0x01
    156c:	aa 27       	eor	r26, r26
    156e:	97 fd       	sbrc	r25, 7
    1570:	a0 95       	com	r26
    1572:	ba 2f       	mov	r27, r26
    1574:	01 2f       	mov	r16, r17
    1576:	0f 76       	andi	r16, 0x6F	; 111
    1578:	b7 ff       	sbrs	r27, 7
    157a:	08 c0       	rjmp	.+16     	; 0x158c <__stack+0x48d>
    157c:	b0 95       	com	r27
    157e:	a0 95       	com	r26
    1580:	90 95       	com	r25
    1582:	81 95       	neg	r24
    1584:	9f 4f       	sbci	r25, 0xFF	; 255
    1586:	af 4f       	sbci	r26, 0xFF	; 255
    1588:	bf 4f       	sbci	r27, 0xFF	; 255
    158a:	00 68       	ori	r16, 0x80	; 128
    158c:	bc 01       	movw	r22, r24
    158e:	cd 01       	movw	r24, r26
    1590:	a1 01       	movw	r20, r2
    1592:	2a e0       	ldi	r18, 0x0A	; 10
    1594:	30 e0       	ldi	r19, 0x00	; 0
    1596:	0e 94 56 0d 	call	0x1aac	; 0x1aac <__ultoa_invert>
    159a:	e8 2e       	mov	r14, r24
    159c:	e2 18       	sub	r14, r2
    159e:	41 c0       	rjmp	.+130    	; 0x1622 <__stack+0x523>
    15a0:	85 37       	cpi	r24, 0x75	; 117
    15a2:	21 f4       	brne	.+8      	; 0x15ac <__stack+0x4ad>
    15a4:	1f 7e       	andi	r17, 0xEF	; 239
    15a6:	2a e0       	ldi	r18, 0x0A	; 10
    15a8:	30 e0       	ldi	r19, 0x00	; 0
    15aa:	20 c0       	rjmp	.+64     	; 0x15ec <__stack+0x4ed>
    15ac:	19 7f       	andi	r17, 0xF9	; 249
    15ae:	8f 36       	cpi	r24, 0x6F	; 111
    15b0:	a9 f0       	breq	.+42     	; 0x15dc <__stack+0x4dd>
    15b2:	80 37       	cpi	r24, 0x70	; 112
    15b4:	20 f4       	brcc	.+8      	; 0x15be <__stack+0x4bf>
    15b6:	88 35       	cpi	r24, 0x58	; 88
    15b8:	09 f0       	breq	.+2      	; 0x15bc <__stack+0x4bd>
    15ba:	b0 c0       	rjmp	.+352    	; 0x171c <__stack+0x61d>
    15bc:	0b c0       	rjmp	.+22     	; 0x15d4 <__stack+0x4d5>
    15be:	80 37       	cpi	r24, 0x70	; 112
    15c0:	21 f0       	breq	.+8      	; 0x15ca <__stack+0x4cb>
    15c2:	88 37       	cpi	r24, 0x78	; 120
    15c4:	09 f0       	breq	.+2      	; 0x15c8 <__stack+0x4c9>
    15c6:	aa c0       	rjmp	.+340    	; 0x171c <__stack+0x61d>
    15c8:	01 c0       	rjmp	.+2      	; 0x15cc <__stack+0x4cd>
    15ca:	10 61       	ori	r17, 0x10	; 16
    15cc:	14 ff       	sbrs	r17, 4
    15ce:	09 c0       	rjmp	.+18     	; 0x15e2 <__stack+0x4e3>
    15d0:	14 60       	ori	r17, 0x04	; 4
    15d2:	07 c0       	rjmp	.+14     	; 0x15e2 <__stack+0x4e3>
    15d4:	14 ff       	sbrs	r17, 4
    15d6:	08 c0       	rjmp	.+16     	; 0x15e8 <__stack+0x4e9>
    15d8:	16 60       	ori	r17, 0x06	; 6
    15da:	06 c0       	rjmp	.+12     	; 0x15e8 <__stack+0x4e9>
    15dc:	28 e0       	ldi	r18, 0x08	; 8
    15de:	30 e0       	ldi	r19, 0x00	; 0
    15e0:	05 c0       	rjmp	.+10     	; 0x15ec <__stack+0x4ed>
    15e2:	20 e1       	ldi	r18, 0x10	; 16
    15e4:	30 e0       	ldi	r19, 0x00	; 0
    15e6:	02 c0       	rjmp	.+4      	; 0x15ec <__stack+0x4ed>
    15e8:	20 e1       	ldi	r18, 0x10	; 16
    15ea:	32 e0       	ldi	r19, 0x02	; 2
    15ec:	ca 01       	movw	r24, r20
    15ee:	17 ff       	sbrs	r17, 7
    15f0:	09 c0       	rjmp	.+18     	; 0x1604 <__stack+0x505>
    15f2:	04 96       	adiw	r24, 0x04	; 4
    15f4:	9d 87       	std	Y+13, r25	; 0x0d
    15f6:	8c 87       	std	Y+12, r24	; 0x0c
    15f8:	fa 01       	movw	r30, r20
    15fa:	60 81       	ld	r22, Z
    15fc:	71 81       	ldd	r23, Z+1	; 0x01
    15fe:	82 81       	ldd	r24, Z+2	; 0x02
    1600:	93 81       	ldd	r25, Z+3	; 0x03
    1602:	08 c0       	rjmp	.+16     	; 0x1614 <__stack+0x515>
    1604:	02 96       	adiw	r24, 0x02	; 2
    1606:	9d 87       	std	Y+13, r25	; 0x0d
    1608:	8c 87       	std	Y+12, r24	; 0x0c
    160a:	fa 01       	movw	r30, r20
    160c:	60 81       	ld	r22, Z
    160e:	71 81       	ldd	r23, Z+1	; 0x01
    1610:	80 e0       	ldi	r24, 0x00	; 0
    1612:	90 e0       	ldi	r25, 0x00	; 0
    1614:	a1 01       	movw	r20, r2
    1616:	0e 94 56 0d 	call	0x1aac	; 0x1aac <__ultoa_invert>
    161a:	e8 2e       	mov	r14, r24
    161c:	e2 18       	sub	r14, r2
    161e:	01 2f       	mov	r16, r17
    1620:	0f 77       	andi	r16, 0x7F	; 127
    1622:	06 ff       	sbrs	r16, 6
    1624:	09 c0       	rjmp	.+18     	; 0x1638 <__stack+0x539>
    1626:	0e 7f       	andi	r16, 0xFE	; 254
    1628:	ef 14       	cp	r14, r15
    162a:	30 f4       	brcc	.+12     	; 0x1638 <__stack+0x539>
    162c:	04 ff       	sbrs	r16, 4
    162e:	06 c0       	rjmp	.+12     	; 0x163c <__stack+0x53d>
    1630:	02 fd       	sbrc	r16, 2
    1632:	04 c0       	rjmp	.+8      	; 0x163c <__stack+0x53d>
    1634:	0f 7e       	andi	r16, 0xEF	; 239
    1636:	02 c0       	rjmp	.+4      	; 0x163c <__stack+0x53d>
    1638:	1e 2d       	mov	r17, r14
    163a:	01 c0       	rjmp	.+2      	; 0x163e <__stack+0x53f>
    163c:	1f 2d       	mov	r17, r15
    163e:	80 2f       	mov	r24, r16
    1640:	90 e0       	ldi	r25, 0x00	; 0
    1642:	04 ff       	sbrs	r16, 4
    1644:	0c c0       	rjmp	.+24     	; 0x165e <__stack+0x55f>
    1646:	fe 01       	movw	r30, r28
    1648:	ee 0d       	add	r30, r14
    164a:	f1 1d       	adc	r31, r1
    164c:	20 81       	ld	r18, Z
    164e:	20 33       	cpi	r18, 0x30	; 48
    1650:	11 f4       	brne	.+4      	; 0x1656 <__stack+0x557>
    1652:	09 7e       	andi	r16, 0xE9	; 233
    1654:	09 c0       	rjmp	.+18     	; 0x1668 <__stack+0x569>
    1656:	02 ff       	sbrs	r16, 2
    1658:	06 c0       	rjmp	.+12     	; 0x1666 <__stack+0x567>
    165a:	1e 5f       	subi	r17, 0xFE	; 254
    165c:	05 c0       	rjmp	.+10     	; 0x1668 <__stack+0x569>
    165e:	86 78       	andi	r24, 0x86	; 134
    1660:	90 70       	andi	r25, 0x00	; 0
    1662:	00 97       	sbiw	r24, 0x00	; 0
    1664:	09 f0       	breq	.+2      	; 0x1668 <__stack+0x569>
    1666:	1f 5f       	subi	r17, 0xFF	; 255
    1668:	a0 2e       	mov	r10, r16
    166a:	bb 24       	eor	r11, r11
    166c:	03 fd       	sbrc	r16, 3
    166e:	12 c0       	rjmp	.+36     	; 0x1694 <__stack+0x595>
    1670:	00 ff       	sbrs	r16, 0
    1672:	0d c0       	rjmp	.+26     	; 0x168e <__stack+0x58f>
    1674:	fe 2c       	mov	r15, r14
    1676:	1d 15       	cp	r17, r13
    1678:	50 f4       	brcc	.+20     	; 0x168e <__stack+0x58f>
    167a:	fd 0c       	add	r15, r13
    167c:	f1 1a       	sub	r15, r17
    167e:	1d 2d       	mov	r17, r13
    1680:	06 c0       	rjmp	.+12     	; 0x168e <__stack+0x58f>
    1682:	80 e2       	ldi	r24, 0x20	; 32
    1684:	90 e0       	ldi	r25, 0x00	; 0
    1686:	b4 01       	movw	r22, r8
    1688:	0e 94 18 0d 	call	0x1a30	; 0x1a30 <fputc>
    168c:	1f 5f       	subi	r17, 0xFF	; 255
    168e:	1d 15       	cp	r17, r13
    1690:	c0 f3       	brcs	.-16     	; 0x1682 <__stack+0x583>
    1692:	04 c0       	rjmp	.+8      	; 0x169c <__stack+0x59d>
    1694:	1d 15       	cp	r17, r13
    1696:	10 f4       	brcc	.+4      	; 0x169c <__stack+0x59d>
    1698:	d1 1a       	sub	r13, r17
    169a:	01 c0       	rjmp	.+2      	; 0x169e <__stack+0x59f>
    169c:	dd 24       	eor	r13, r13
    169e:	a4 fe       	sbrs	r10, 4
    16a0:	0f c0       	rjmp	.+30     	; 0x16c0 <__stack+0x5c1>
    16a2:	80 e3       	ldi	r24, 0x30	; 48
    16a4:	90 e0       	ldi	r25, 0x00	; 0
    16a6:	b4 01       	movw	r22, r8
    16a8:	0e 94 18 0d 	call	0x1a30	; 0x1a30 <fputc>
    16ac:	a2 fe       	sbrs	r10, 2
    16ae:	1f c0       	rjmp	.+62     	; 0x16ee <__stack+0x5ef>
    16b0:	a1 fe       	sbrs	r10, 1
    16b2:	03 c0       	rjmp	.+6      	; 0x16ba <__stack+0x5bb>
    16b4:	88 e5       	ldi	r24, 0x58	; 88
    16b6:	90 e0       	ldi	r25, 0x00	; 0
    16b8:	10 c0       	rjmp	.+32     	; 0x16da <__stack+0x5db>
    16ba:	88 e7       	ldi	r24, 0x78	; 120
    16bc:	90 e0       	ldi	r25, 0x00	; 0
    16be:	0d c0       	rjmp	.+26     	; 0x16da <__stack+0x5db>
    16c0:	c5 01       	movw	r24, r10
    16c2:	86 78       	andi	r24, 0x86	; 134
    16c4:	90 70       	andi	r25, 0x00	; 0
    16c6:	00 97       	sbiw	r24, 0x00	; 0
    16c8:	91 f0       	breq	.+36     	; 0x16ee <__stack+0x5ef>
    16ca:	a1 fc       	sbrc	r10, 1
    16cc:	02 c0       	rjmp	.+4      	; 0x16d2 <__stack+0x5d3>
    16ce:	80 e2       	ldi	r24, 0x20	; 32
    16d0:	01 c0       	rjmp	.+2      	; 0x16d4 <__stack+0x5d5>
    16d2:	8b e2       	ldi	r24, 0x2B	; 43
    16d4:	07 fd       	sbrc	r16, 7
    16d6:	8d e2       	ldi	r24, 0x2D	; 45
    16d8:	90 e0       	ldi	r25, 0x00	; 0
    16da:	b4 01       	movw	r22, r8
    16dc:	0e 94 18 0d 	call	0x1a30	; 0x1a30 <fputc>
    16e0:	06 c0       	rjmp	.+12     	; 0x16ee <__stack+0x5ef>
    16e2:	80 e3       	ldi	r24, 0x30	; 48
    16e4:	90 e0       	ldi	r25, 0x00	; 0
    16e6:	b4 01       	movw	r22, r8
    16e8:	0e 94 18 0d 	call	0x1a30	; 0x1a30 <fputc>
    16ec:	fa 94       	dec	r15
    16ee:	ef 14       	cp	r14, r15
    16f0:	c0 f3       	brcs	.-16     	; 0x16e2 <__stack+0x5e3>
    16f2:	ea 94       	dec	r14
    16f4:	f1 01       	movw	r30, r2
    16f6:	ee 0d       	add	r30, r14
    16f8:	f1 1d       	adc	r31, r1
    16fa:	80 81       	ld	r24, Z
    16fc:	90 e0       	ldi	r25, 0x00	; 0
    16fe:	b4 01       	movw	r22, r8
    1700:	0e 94 18 0d 	call	0x1a30	; 0x1a30 <fputc>
    1704:	ee 20       	and	r14, r14
    1706:	a9 f7       	brne	.-22     	; 0x16f2 <__stack+0x5f3>
    1708:	06 c0       	rjmp	.+12     	; 0x1716 <__stack+0x617>
    170a:	80 e2       	ldi	r24, 0x20	; 32
    170c:	90 e0       	ldi	r25, 0x00	; 0
    170e:	b4 01       	movw	r22, r8
    1710:	0e 94 18 0d 	call	0x1a30	; 0x1a30 <fputc>
    1714:	da 94       	dec	r13
    1716:	dd 20       	and	r13, r13
    1718:	c1 f7       	brne	.-16     	; 0x170a <__stack+0x60b>
    171a:	8e cc       	rjmp	.-1764   	; 0x1038 <vfprintf+0x48>
    171c:	f4 01       	movw	r30, r8
    171e:	86 81       	ldd	r24, Z+6	; 0x06
    1720:	97 81       	ldd	r25, Z+7	; 0x07
    1722:	02 c0       	rjmp	.+4      	; 0x1728 <__stack+0x629>
    1724:	8f ef       	ldi	r24, 0xFF	; 255
    1726:	9f ef       	ldi	r25, 0xFF	; 255
    1728:	65 96       	adiw	r28, 0x15	; 21
    172a:	0f b6       	in	r0, 0x3f	; 63
    172c:	f8 94       	cli
    172e:	de bf       	out	0x3e, r29	; 62
    1730:	0f be       	out	0x3f, r0	; 63
    1732:	cd bf       	out	0x3d, r28	; 61
    1734:	df 91       	pop	r29
    1736:	cf 91       	pop	r28
    1738:	1f 91       	pop	r17
    173a:	0f 91       	pop	r16
    173c:	ff 90       	pop	r15
    173e:	ef 90       	pop	r14
    1740:	df 90       	pop	r13
    1742:	cf 90       	pop	r12
    1744:	bf 90       	pop	r11
    1746:	af 90       	pop	r10
    1748:	9f 90       	pop	r9
    174a:	8f 90       	pop	r8
    174c:	7f 90       	pop	r7
    174e:	6f 90       	pop	r6
    1750:	5f 90       	pop	r5
    1752:	4f 90       	pop	r4
    1754:	3f 90       	pop	r3
    1756:	2f 90       	pop	r2
    1758:	08 95       	ret

0000175a <__udivmodqi4>:
    175a:	99 1b       	sub	r25, r25
    175c:	79 e0       	ldi	r23, 0x09	; 9
    175e:	04 c0       	rjmp	.+8      	; 0x1768 <__udivmodqi4_ep>

00001760 <__udivmodqi4_loop>:
    1760:	99 1f       	adc	r25, r25
    1762:	96 17       	cp	r25, r22
    1764:	08 f0       	brcs	.+2      	; 0x1768 <__udivmodqi4_ep>
    1766:	96 1b       	sub	r25, r22

00001768 <__udivmodqi4_ep>:
    1768:	88 1f       	adc	r24, r24
    176a:	7a 95       	dec	r23
    176c:	c9 f7       	brne	.-14     	; 0x1760 <__udivmodqi4_loop>
    176e:	80 95       	com	r24
    1770:	08 95       	ret

00001772 <__udivmodhi4>:
    1772:	aa 1b       	sub	r26, r26
    1774:	bb 1b       	sub	r27, r27
    1776:	51 e1       	ldi	r21, 0x11	; 17
    1778:	07 c0       	rjmp	.+14     	; 0x1788 <__udivmodhi4_ep>

0000177a <__udivmodhi4_loop>:
    177a:	aa 1f       	adc	r26, r26
    177c:	bb 1f       	adc	r27, r27
    177e:	a6 17       	cp	r26, r22
    1780:	b7 07       	cpc	r27, r23
    1782:	10 f0       	brcs	.+4      	; 0x1788 <__udivmodhi4_ep>
    1784:	a6 1b       	sub	r26, r22
    1786:	b7 0b       	sbc	r27, r23

00001788 <__udivmodhi4_ep>:
    1788:	88 1f       	adc	r24, r24
    178a:	99 1f       	adc	r25, r25
    178c:	5a 95       	dec	r21
    178e:	a9 f7       	brne	.-22     	; 0x177a <__udivmodhi4_loop>
    1790:	80 95       	com	r24
    1792:	90 95       	com	r25
    1794:	bc 01       	movw	r22, r24
    1796:	cd 01       	movw	r24, r26
    1798:	08 95       	ret

0000179a <__divmodhi4>:
    179a:	97 fb       	bst	r25, 7
    179c:	09 2e       	mov	r0, r25
    179e:	07 26       	eor	r0, r23
    17a0:	0a d0       	rcall	.+20     	; 0x17b6 <__divmodhi4_neg1>
    17a2:	77 fd       	sbrc	r23, 7
    17a4:	04 d0       	rcall	.+8      	; 0x17ae <__divmodhi4_neg2>
    17a6:	e5 df       	rcall	.-54     	; 0x1772 <__udivmodhi4>
    17a8:	06 d0       	rcall	.+12     	; 0x17b6 <__divmodhi4_neg1>
    17aa:	00 20       	and	r0, r0
    17ac:	1a f4       	brpl	.+6      	; 0x17b4 <__divmodhi4_exit>

000017ae <__divmodhi4_neg2>:
    17ae:	70 95       	com	r23
    17b0:	61 95       	neg	r22
    17b2:	7f 4f       	sbci	r23, 0xFF	; 255

000017b4 <__divmodhi4_exit>:
    17b4:	08 95       	ret

000017b6 <__divmodhi4_neg1>:
    17b6:	f6 f7       	brtc	.-4      	; 0x17b4 <__divmodhi4_exit>
    17b8:	90 95       	com	r25
    17ba:	81 95       	neg	r24
    17bc:	9f 4f       	sbci	r25, 0xFF	; 255
    17be:	08 95       	ret

000017c0 <__ftoa_engine>:
    17c0:	28 30       	cpi	r18, 0x08	; 8
    17c2:	08 f0       	brcs	.+2      	; 0x17c6 <__ftoa_engine+0x6>
    17c4:	27 e0       	ldi	r18, 0x07	; 7
    17c6:	33 27       	eor	r19, r19
    17c8:	da 01       	movw	r26, r20
    17ca:	99 0f       	add	r25, r25
    17cc:	31 1d       	adc	r19, r1
    17ce:	87 fd       	sbrc	r24, 7
    17d0:	91 60       	ori	r25, 0x01	; 1
    17d2:	00 96       	adiw	r24, 0x00	; 0
    17d4:	61 05       	cpc	r22, r1
    17d6:	71 05       	cpc	r23, r1
    17d8:	39 f4       	brne	.+14     	; 0x17e8 <__ftoa_engine+0x28>
    17da:	32 60       	ori	r19, 0x02	; 2
    17dc:	2e 5f       	subi	r18, 0xFE	; 254
    17de:	3d 93       	st	X+, r19
    17e0:	30 e3       	ldi	r19, 0x30	; 48
    17e2:	2a 95       	dec	r18
    17e4:	e1 f7       	brne	.-8      	; 0x17de <__ftoa_engine+0x1e>
    17e6:	08 95       	ret
    17e8:	9f 3f       	cpi	r25, 0xFF	; 255
    17ea:	30 f0       	brcs	.+12     	; 0x17f8 <__ftoa_engine+0x38>
    17ec:	80 38       	cpi	r24, 0x80	; 128
    17ee:	71 05       	cpc	r23, r1
    17f0:	61 05       	cpc	r22, r1
    17f2:	09 f0       	breq	.+2      	; 0x17f6 <__ftoa_engine+0x36>
    17f4:	3c 5f       	subi	r19, 0xFC	; 252
    17f6:	3c 5f       	subi	r19, 0xFC	; 252
    17f8:	3d 93       	st	X+, r19
    17fa:	91 30       	cpi	r25, 0x01	; 1
    17fc:	08 f0       	brcs	.+2      	; 0x1800 <__ftoa_engine+0x40>
    17fe:	80 68       	ori	r24, 0x80	; 128
    1800:	91 1d       	adc	r25, r1
    1802:	df 93       	push	r29
    1804:	cf 93       	push	r28
    1806:	1f 93       	push	r17
    1808:	0f 93       	push	r16
    180a:	ff 92       	push	r15
    180c:	ef 92       	push	r14
    180e:	19 2f       	mov	r17, r25
    1810:	98 7f       	andi	r25, 0xF8	; 248
    1812:	96 95       	lsr	r25
    1814:	e9 2f       	mov	r30, r25
    1816:	96 95       	lsr	r25
    1818:	96 95       	lsr	r25
    181a:	e9 0f       	add	r30, r25
    181c:	ff 27       	eor	r31, r31
    181e:	e2 51       	subi	r30, 0x12	; 18
    1820:	ff 4f       	sbci	r31, 0xFF	; 255
    1822:	99 27       	eor	r25, r25
    1824:	33 27       	eor	r19, r19
    1826:	ee 24       	eor	r14, r14
    1828:	ff 24       	eor	r15, r15
    182a:	a7 01       	movw	r20, r14
    182c:	e7 01       	movw	r28, r14
    182e:	05 90       	lpm	r0, Z+
    1830:	08 94       	sec
    1832:	07 94       	ror	r0
    1834:	28 f4       	brcc	.+10     	; 0x1840 <__ftoa_engine+0x80>
    1836:	36 0f       	add	r19, r22
    1838:	e7 1e       	adc	r14, r23
    183a:	f8 1e       	adc	r15, r24
    183c:	49 1f       	adc	r20, r25
    183e:	51 1d       	adc	r21, r1
    1840:	66 0f       	add	r22, r22
    1842:	77 1f       	adc	r23, r23
    1844:	88 1f       	adc	r24, r24
    1846:	99 1f       	adc	r25, r25
    1848:	06 94       	lsr	r0
    184a:	a1 f7       	brne	.-24     	; 0x1834 <__ftoa_engine+0x74>
    184c:	05 90       	lpm	r0, Z+
    184e:	07 94       	ror	r0
    1850:	28 f4       	brcc	.+10     	; 0x185c <__ftoa_engine+0x9c>
    1852:	e7 0e       	add	r14, r23
    1854:	f8 1e       	adc	r15, r24
    1856:	49 1f       	adc	r20, r25
    1858:	56 1f       	adc	r21, r22
    185a:	c1 1d       	adc	r28, r1
    185c:	77 0f       	add	r23, r23
    185e:	88 1f       	adc	r24, r24
    1860:	99 1f       	adc	r25, r25
    1862:	66 1f       	adc	r22, r22
    1864:	06 94       	lsr	r0
    1866:	a1 f7       	brne	.-24     	; 0x1850 <__ftoa_engine+0x90>
    1868:	05 90       	lpm	r0, Z+
    186a:	07 94       	ror	r0
    186c:	28 f4       	brcc	.+10     	; 0x1878 <__ftoa_engine+0xb8>
    186e:	f8 0e       	add	r15, r24
    1870:	49 1f       	adc	r20, r25
    1872:	56 1f       	adc	r21, r22
    1874:	c7 1f       	adc	r28, r23
    1876:	d1 1d       	adc	r29, r1
    1878:	88 0f       	add	r24, r24
    187a:	99 1f       	adc	r25, r25
    187c:	66 1f       	adc	r22, r22
    187e:	77 1f       	adc	r23, r23
    1880:	06 94       	lsr	r0
    1882:	a1 f7       	brne	.-24     	; 0x186c <__ftoa_engine+0xac>
    1884:	05 90       	lpm	r0, Z+
    1886:	07 94       	ror	r0
    1888:	20 f4       	brcc	.+8      	; 0x1892 <__ftoa_engine+0xd2>
    188a:	49 0f       	add	r20, r25
    188c:	56 1f       	adc	r21, r22
    188e:	c7 1f       	adc	r28, r23
    1890:	d8 1f       	adc	r29, r24
    1892:	99 0f       	add	r25, r25
    1894:	66 1f       	adc	r22, r22
    1896:	77 1f       	adc	r23, r23
    1898:	88 1f       	adc	r24, r24
    189a:	06 94       	lsr	r0
    189c:	a9 f7       	brne	.-22     	; 0x1888 <__ftoa_engine+0xc8>
    189e:	84 91       	lpm	r24, Z
    18a0:	10 95       	com	r17
    18a2:	17 70       	andi	r17, 0x07	; 7
    18a4:	41 f0       	breq	.+16     	; 0x18b6 <__ftoa_engine+0xf6>
    18a6:	d6 95       	lsr	r29
    18a8:	c7 95       	ror	r28
    18aa:	57 95       	ror	r21
    18ac:	47 95       	ror	r20
    18ae:	f7 94       	ror	r15
    18b0:	e7 94       	ror	r14
    18b2:	1a 95       	dec	r17
    18b4:	c1 f7       	brne	.-16     	; 0x18a6 <__ftoa_engine+0xe6>
    18b6:	e4 e9       	ldi	r30, 0x94	; 148
    18b8:	f0 e0       	ldi	r31, 0x00	; 0
    18ba:	68 94       	set
    18bc:	15 90       	lpm	r1, Z+
    18be:	15 91       	lpm	r17, Z+
    18c0:	35 91       	lpm	r19, Z+
    18c2:	65 91       	lpm	r22, Z+
    18c4:	95 91       	lpm	r25, Z+
    18c6:	05 90       	lpm	r0, Z+
    18c8:	7f e2       	ldi	r23, 0x2F	; 47
    18ca:	73 95       	inc	r23
    18cc:	e1 18       	sub	r14, r1
    18ce:	f1 0a       	sbc	r15, r17
    18d0:	43 0b       	sbc	r20, r19
    18d2:	56 0b       	sbc	r21, r22
    18d4:	c9 0b       	sbc	r28, r25
    18d6:	d0 09       	sbc	r29, r0
    18d8:	c0 f7       	brcc	.-16     	; 0x18ca <__ftoa_engine+0x10a>
    18da:	e1 0c       	add	r14, r1
    18dc:	f1 1e       	adc	r15, r17
    18de:	43 1f       	adc	r20, r19
    18e0:	56 1f       	adc	r21, r22
    18e2:	c9 1f       	adc	r28, r25
    18e4:	d0 1d       	adc	r29, r0
    18e6:	7e f4       	brtc	.+30     	; 0x1906 <__ftoa_engine+0x146>
    18e8:	70 33       	cpi	r23, 0x30	; 48
    18ea:	11 f4       	brne	.+4      	; 0x18f0 <__ftoa_engine+0x130>
    18ec:	8a 95       	dec	r24
    18ee:	e6 cf       	rjmp	.-52     	; 0x18bc <__ftoa_engine+0xfc>
    18f0:	e8 94       	clt
    18f2:	01 50       	subi	r16, 0x01	; 1
    18f4:	30 f0       	brcs	.+12     	; 0x1902 <__ftoa_engine+0x142>
    18f6:	08 0f       	add	r16, r24
    18f8:	0a f4       	brpl	.+2      	; 0x18fc <__ftoa_engine+0x13c>
    18fa:	00 27       	eor	r16, r16
    18fc:	02 17       	cp	r16, r18
    18fe:	08 f4       	brcc	.+2      	; 0x1902 <__ftoa_engine+0x142>
    1900:	20 2f       	mov	r18, r16
    1902:	23 95       	inc	r18
    1904:	02 2f       	mov	r16, r18
    1906:	7a 33       	cpi	r23, 0x3A	; 58
    1908:	28 f0       	brcs	.+10     	; 0x1914 <__ftoa_engine+0x154>
    190a:	79 e3       	ldi	r23, 0x39	; 57
    190c:	7d 93       	st	X+, r23
    190e:	2a 95       	dec	r18
    1910:	e9 f7       	brne	.-6      	; 0x190c <__ftoa_engine+0x14c>
    1912:	10 c0       	rjmp	.+32     	; 0x1934 <__ftoa_engine+0x174>
    1914:	7d 93       	st	X+, r23
    1916:	2a 95       	dec	r18
    1918:	89 f6       	brne	.-94     	; 0x18bc <__ftoa_engine+0xfc>
    191a:	06 94       	lsr	r0
    191c:	97 95       	ror	r25
    191e:	67 95       	ror	r22
    1920:	37 95       	ror	r19
    1922:	17 95       	ror	r17
    1924:	17 94       	ror	r1
    1926:	e1 18       	sub	r14, r1
    1928:	f1 0a       	sbc	r15, r17
    192a:	43 0b       	sbc	r20, r19
    192c:	56 0b       	sbc	r21, r22
    192e:	c9 0b       	sbc	r28, r25
    1930:	d0 09       	sbc	r29, r0
    1932:	98 f0       	brcs	.+38     	; 0x195a <__ftoa_engine+0x19a>
    1934:	23 95       	inc	r18
    1936:	7e 91       	ld	r23, -X
    1938:	73 95       	inc	r23
    193a:	7a 33       	cpi	r23, 0x3A	; 58
    193c:	08 f0       	brcs	.+2      	; 0x1940 <__ftoa_engine+0x180>
    193e:	70 e3       	ldi	r23, 0x30	; 48
    1940:	7c 93       	st	X, r23
    1942:	20 13       	cpse	r18, r16
    1944:	b8 f7       	brcc	.-18     	; 0x1934 <__ftoa_engine+0x174>
    1946:	7e 91       	ld	r23, -X
    1948:	70 61       	ori	r23, 0x10	; 16
    194a:	7d 93       	st	X+, r23
    194c:	30 f0       	brcs	.+12     	; 0x195a <__ftoa_engine+0x19a>
    194e:	83 95       	inc	r24
    1950:	71 e3       	ldi	r23, 0x31	; 49
    1952:	7d 93       	st	X+, r23
    1954:	70 e3       	ldi	r23, 0x30	; 48
    1956:	2a 95       	dec	r18
    1958:	e1 f7       	brne	.-8      	; 0x1952 <__ftoa_engine+0x192>
    195a:	11 24       	eor	r1, r1
    195c:	ef 90       	pop	r14
    195e:	ff 90       	pop	r15
    1960:	0f 91       	pop	r16
    1962:	1f 91       	pop	r17
    1964:	cf 91       	pop	r28
    1966:	df 91       	pop	r29
    1968:	99 27       	eor	r25, r25
    196a:	87 fd       	sbrc	r24, 7
    196c:	90 95       	com	r25
    196e:	08 95       	ret

00001970 <strnlen_P>:
    1970:	fc 01       	movw	r30, r24
    1972:	05 90       	lpm	r0, Z+
    1974:	61 50       	subi	r22, 0x01	; 1
    1976:	70 40       	sbci	r23, 0x00	; 0
    1978:	01 10       	cpse	r0, r1
    197a:	d8 f7       	brcc	.-10     	; 0x1972 <strnlen_P+0x2>
    197c:	80 95       	com	r24
    197e:	90 95       	com	r25
    1980:	8e 0f       	add	r24, r30
    1982:	9f 1f       	adc	r25, r31
    1984:	08 95       	ret

00001986 <strnlen>:
    1986:	fc 01       	movw	r30, r24
    1988:	61 50       	subi	r22, 0x01	; 1
    198a:	70 40       	sbci	r23, 0x00	; 0
    198c:	01 90       	ld	r0, Z+
    198e:	01 10       	cpse	r0, r1
    1990:	d8 f7       	brcc	.-10     	; 0x1988 <strnlen+0x2>
    1992:	80 95       	com	r24
    1994:	90 95       	com	r25
    1996:	8e 0f       	add	r24, r30
    1998:	9f 1f       	adc	r25, r31
    199a:	08 95       	ret

0000199c <fdevopen>:
    199c:	0f 93       	push	r16
    199e:	1f 93       	push	r17
    19a0:	cf 93       	push	r28
    19a2:	df 93       	push	r29
    19a4:	8c 01       	movw	r16, r24
    19a6:	eb 01       	movw	r28, r22
    19a8:	00 97       	sbiw	r24, 0x00	; 0
    19aa:	11 f4       	brne	.+4      	; 0x19b0 <fdevopen+0x14>
    19ac:	20 97       	sbiw	r28, 0x00	; 0
    19ae:	c1 f1       	breq	.+112    	; 0x1a20 <fdevopen+0x84>
    19b0:	81 e0       	ldi	r24, 0x01	; 1
    19b2:	90 e0       	ldi	r25, 0x00	; 0
    19b4:	6e e0       	ldi	r22, 0x0E	; 14
    19b6:	70 e0       	ldi	r23, 0x00	; 0
    19b8:	0e 94 b4 0d 	call	0x1b68	; 0x1b68 <calloc>
    19bc:	fc 01       	movw	r30, r24
    19be:	00 97       	sbiw	r24, 0x00	; 0
    19c0:	89 f1       	breq	.+98     	; 0x1a24 <fdevopen+0x88>
    19c2:	80 e8       	ldi	r24, 0x80	; 128
    19c4:	83 83       	std	Z+3, r24	; 0x03
    19c6:	20 97       	sbiw	r28, 0x00	; 0
    19c8:	71 f0       	breq	.+28     	; 0x19e6 <fdevopen+0x4a>
    19ca:	d3 87       	std	Z+11, r29	; 0x0b
    19cc:	c2 87       	std	Z+10, r28	; 0x0a
    19ce:	81 e8       	ldi	r24, 0x81	; 129
    19d0:	83 83       	std	Z+3, r24	; 0x03
    19d2:	80 91 47 06 	lds	r24, 0x0647
    19d6:	90 91 48 06 	lds	r25, 0x0648
    19da:	00 97       	sbiw	r24, 0x00	; 0
    19dc:	21 f4       	brne	.+8      	; 0x19e6 <fdevopen+0x4a>
    19de:	f0 93 48 06 	sts	0x0648, r31
    19e2:	e0 93 47 06 	sts	0x0647, r30
    19e6:	01 15       	cp	r16, r1
    19e8:	11 05       	cpc	r17, r1
    19ea:	e1 f0       	breq	.+56     	; 0x1a24 <fdevopen+0x88>
    19ec:	11 87       	std	Z+9, r17	; 0x09
    19ee:	00 87       	std	Z+8, r16	; 0x08
    19f0:	83 81       	ldd	r24, Z+3	; 0x03
    19f2:	82 60       	ori	r24, 0x02	; 2
    19f4:	83 83       	std	Z+3, r24	; 0x03
    19f6:	80 91 49 06 	lds	r24, 0x0649
    19fa:	90 91 4a 06 	lds	r25, 0x064A
    19fe:	00 97       	sbiw	r24, 0x00	; 0
    1a00:	89 f4       	brne	.+34     	; 0x1a24 <fdevopen+0x88>
    1a02:	f0 93 4a 06 	sts	0x064A, r31
    1a06:	e0 93 49 06 	sts	0x0649, r30
    1a0a:	80 91 4b 06 	lds	r24, 0x064B
    1a0e:	90 91 4c 06 	lds	r25, 0x064C
    1a12:	00 97       	sbiw	r24, 0x00	; 0
    1a14:	39 f4       	brne	.+14     	; 0x1a24 <fdevopen+0x88>
    1a16:	f0 93 4c 06 	sts	0x064C, r31
    1a1a:	e0 93 4b 06 	sts	0x064B, r30
    1a1e:	02 c0       	rjmp	.+4      	; 0x1a24 <fdevopen+0x88>
    1a20:	e0 e0       	ldi	r30, 0x00	; 0
    1a22:	f0 e0       	ldi	r31, 0x00	; 0
    1a24:	cf 01       	movw	r24, r30
    1a26:	df 91       	pop	r29
    1a28:	cf 91       	pop	r28
    1a2a:	1f 91       	pop	r17
    1a2c:	0f 91       	pop	r16
    1a2e:	08 95       	ret

00001a30 <fputc>:
    1a30:	0f 93       	push	r16
    1a32:	1f 93       	push	r17
    1a34:	cf 93       	push	r28
    1a36:	df 93       	push	r29
    1a38:	8c 01       	movw	r16, r24
    1a3a:	eb 01       	movw	r28, r22
    1a3c:	8b 81       	ldd	r24, Y+3	; 0x03
    1a3e:	81 ff       	sbrs	r24, 1
    1a40:	1b c0       	rjmp	.+54     	; 0x1a78 <fputc+0x48>
    1a42:	82 ff       	sbrs	r24, 2
    1a44:	0d c0       	rjmp	.+26     	; 0x1a60 <fputc+0x30>
    1a46:	2e 81       	ldd	r18, Y+6	; 0x06
    1a48:	3f 81       	ldd	r19, Y+7	; 0x07
    1a4a:	8c 81       	ldd	r24, Y+4	; 0x04
    1a4c:	9d 81       	ldd	r25, Y+5	; 0x05
    1a4e:	28 17       	cp	r18, r24
    1a50:	39 07       	cpc	r19, r25
    1a52:	64 f4       	brge	.+24     	; 0x1a6c <fputc+0x3c>
    1a54:	e8 81       	ld	r30, Y
    1a56:	f9 81       	ldd	r31, Y+1	; 0x01
    1a58:	01 93       	st	Z+, r16
    1a5a:	f9 83       	std	Y+1, r31	; 0x01
    1a5c:	e8 83       	st	Y, r30
    1a5e:	06 c0       	rjmp	.+12     	; 0x1a6c <fputc+0x3c>
    1a60:	e8 85       	ldd	r30, Y+8	; 0x08
    1a62:	f9 85       	ldd	r31, Y+9	; 0x09
    1a64:	80 2f       	mov	r24, r16
    1a66:	09 95       	icall
    1a68:	00 97       	sbiw	r24, 0x00	; 0
    1a6a:	31 f4       	brne	.+12     	; 0x1a78 <fputc+0x48>
    1a6c:	8e 81       	ldd	r24, Y+6	; 0x06
    1a6e:	9f 81       	ldd	r25, Y+7	; 0x07
    1a70:	01 96       	adiw	r24, 0x01	; 1
    1a72:	9f 83       	std	Y+7, r25	; 0x07
    1a74:	8e 83       	std	Y+6, r24	; 0x06
    1a76:	02 c0       	rjmp	.+4      	; 0x1a7c <fputc+0x4c>
    1a78:	0f ef       	ldi	r16, 0xFF	; 255
    1a7a:	1f ef       	ldi	r17, 0xFF	; 255
    1a7c:	c8 01       	movw	r24, r16
    1a7e:	df 91       	pop	r29
    1a80:	cf 91       	pop	r28
    1a82:	1f 91       	pop	r17
    1a84:	0f 91       	pop	r16
    1a86:	08 95       	ret

00001a88 <printf>:
    1a88:	cf 93       	push	r28
    1a8a:	df 93       	push	r29
    1a8c:	cd b7       	in	r28, 0x3d	; 61
    1a8e:	de b7       	in	r29, 0x3e	; 62
    1a90:	fe 01       	movw	r30, r28
    1a92:	35 96       	adiw	r30, 0x05	; 5
    1a94:	61 91       	ld	r22, Z+
    1a96:	71 91       	ld	r23, Z+
    1a98:	80 91 49 06 	lds	r24, 0x0649
    1a9c:	90 91 4a 06 	lds	r25, 0x064A
    1aa0:	af 01       	movw	r20, r30
    1aa2:	0e 94 f8 07 	call	0xff0	; 0xff0 <vfprintf>
    1aa6:	df 91       	pop	r29
    1aa8:	cf 91       	pop	r28
    1aaa:	08 95       	ret

00001aac <__ultoa_invert>:
    1aac:	fa 01       	movw	r30, r20
    1aae:	aa 27       	eor	r26, r26
    1ab0:	28 30       	cpi	r18, 0x08	; 8
    1ab2:	51 f1       	breq	.+84     	; 0x1b08 <__ultoa_invert+0x5c>
    1ab4:	20 31       	cpi	r18, 0x10	; 16
    1ab6:	81 f1       	breq	.+96     	; 0x1b18 <__ultoa_invert+0x6c>
    1ab8:	e8 94       	clt
    1aba:	6f 93       	push	r22
    1abc:	6e 7f       	andi	r22, 0xFE	; 254
    1abe:	6e 5f       	subi	r22, 0xFE	; 254
    1ac0:	7f 4f       	sbci	r23, 0xFF	; 255
    1ac2:	8f 4f       	sbci	r24, 0xFF	; 255
    1ac4:	9f 4f       	sbci	r25, 0xFF	; 255
    1ac6:	af 4f       	sbci	r26, 0xFF	; 255
    1ac8:	b1 e0       	ldi	r27, 0x01	; 1
    1aca:	3e d0       	rcall	.+124    	; 0x1b48 <__ultoa_invert+0x9c>
    1acc:	b4 e0       	ldi	r27, 0x04	; 4
    1ace:	3c d0       	rcall	.+120    	; 0x1b48 <__ultoa_invert+0x9c>
    1ad0:	67 0f       	add	r22, r23
    1ad2:	78 1f       	adc	r23, r24
    1ad4:	89 1f       	adc	r24, r25
    1ad6:	9a 1f       	adc	r25, r26
    1ad8:	a1 1d       	adc	r26, r1
    1ada:	68 0f       	add	r22, r24
    1adc:	79 1f       	adc	r23, r25
    1ade:	8a 1f       	adc	r24, r26
    1ae0:	91 1d       	adc	r25, r1
    1ae2:	a1 1d       	adc	r26, r1
    1ae4:	6a 0f       	add	r22, r26
    1ae6:	71 1d       	adc	r23, r1
    1ae8:	81 1d       	adc	r24, r1
    1aea:	91 1d       	adc	r25, r1
    1aec:	a1 1d       	adc	r26, r1
    1aee:	20 d0       	rcall	.+64     	; 0x1b30 <__ultoa_invert+0x84>
    1af0:	09 f4       	brne	.+2      	; 0x1af4 <__ultoa_invert+0x48>
    1af2:	68 94       	set
    1af4:	3f 91       	pop	r19
    1af6:	2a e0       	ldi	r18, 0x0A	; 10
    1af8:	26 9f       	mul	r18, r22
    1afa:	11 24       	eor	r1, r1
    1afc:	30 19       	sub	r19, r0
    1afe:	30 5d       	subi	r19, 0xD0	; 208
    1b00:	31 93       	st	Z+, r19
    1b02:	de f6       	brtc	.-74     	; 0x1aba <__ultoa_invert+0xe>
    1b04:	cf 01       	movw	r24, r30
    1b06:	08 95       	ret
    1b08:	46 2f       	mov	r20, r22
    1b0a:	47 70       	andi	r20, 0x07	; 7
    1b0c:	40 5d       	subi	r20, 0xD0	; 208
    1b0e:	41 93       	st	Z+, r20
    1b10:	b3 e0       	ldi	r27, 0x03	; 3
    1b12:	0f d0       	rcall	.+30     	; 0x1b32 <__ultoa_invert+0x86>
    1b14:	c9 f7       	brne	.-14     	; 0x1b08 <__ultoa_invert+0x5c>
    1b16:	f6 cf       	rjmp	.-20     	; 0x1b04 <__ultoa_invert+0x58>
    1b18:	46 2f       	mov	r20, r22
    1b1a:	4f 70       	andi	r20, 0x0F	; 15
    1b1c:	40 5d       	subi	r20, 0xD0	; 208
    1b1e:	4a 33       	cpi	r20, 0x3A	; 58
    1b20:	18 f0       	brcs	.+6      	; 0x1b28 <__ultoa_invert+0x7c>
    1b22:	49 5d       	subi	r20, 0xD9	; 217
    1b24:	31 fd       	sbrc	r19, 1
    1b26:	40 52       	subi	r20, 0x20	; 32
    1b28:	41 93       	st	Z+, r20
    1b2a:	02 d0       	rcall	.+4      	; 0x1b30 <__ultoa_invert+0x84>
    1b2c:	a9 f7       	brne	.-22     	; 0x1b18 <__ultoa_invert+0x6c>
    1b2e:	ea cf       	rjmp	.-44     	; 0x1b04 <__ultoa_invert+0x58>
    1b30:	b4 e0       	ldi	r27, 0x04	; 4
    1b32:	a6 95       	lsr	r26
    1b34:	97 95       	ror	r25
    1b36:	87 95       	ror	r24
    1b38:	77 95       	ror	r23
    1b3a:	67 95       	ror	r22
    1b3c:	ba 95       	dec	r27
    1b3e:	c9 f7       	brne	.-14     	; 0x1b32 <__ultoa_invert+0x86>
    1b40:	00 97       	sbiw	r24, 0x00	; 0
    1b42:	61 05       	cpc	r22, r1
    1b44:	71 05       	cpc	r23, r1
    1b46:	08 95       	ret
    1b48:	9b 01       	movw	r18, r22
    1b4a:	ac 01       	movw	r20, r24
    1b4c:	0a 2e       	mov	r0, r26
    1b4e:	06 94       	lsr	r0
    1b50:	57 95       	ror	r21
    1b52:	47 95       	ror	r20
    1b54:	37 95       	ror	r19
    1b56:	27 95       	ror	r18
    1b58:	ba 95       	dec	r27
    1b5a:	c9 f7       	brne	.-14     	; 0x1b4e <__ultoa_invert+0xa2>
    1b5c:	62 0f       	add	r22, r18
    1b5e:	73 1f       	adc	r23, r19
    1b60:	84 1f       	adc	r24, r20
    1b62:	95 1f       	adc	r25, r21
    1b64:	a0 1d       	adc	r26, r0
    1b66:	08 95       	ret

00001b68 <calloc>:
    1b68:	0f 93       	push	r16
    1b6a:	1f 93       	push	r17
    1b6c:	cf 93       	push	r28
    1b6e:	df 93       	push	r29
    1b70:	68 9f       	mul	r22, r24
    1b72:	80 01       	movw	r16, r0
    1b74:	69 9f       	mul	r22, r25
    1b76:	10 0d       	add	r17, r0
    1b78:	78 9f       	mul	r23, r24
    1b7a:	10 0d       	add	r17, r0
    1b7c:	11 24       	eor	r1, r1
    1b7e:	c8 01       	movw	r24, r16
    1b80:	0e 94 d2 0d 	call	0x1ba4	; 0x1ba4 <malloc>
    1b84:	c8 2f       	mov	r28, r24
    1b86:	d9 2f       	mov	r29, r25
    1b88:	20 97       	sbiw	r28, 0x00	; 0
    1b8a:	31 f0       	breq	.+12     	; 0x1b98 <calloc+0x30>
    1b8c:	8c 2f       	mov	r24, r28
    1b8e:	60 e0       	ldi	r22, 0x00	; 0
    1b90:	70 e0       	ldi	r23, 0x00	; 0
    1b92:	a8 01       	movw	r20, r16
    1b94:	0e 94 01 0f 	call	0x1e02	; 0x1e02 <memset>
    1b98:	ce 01       	movw	r24, r28
    1b9a:	df 91       	pop	r29
    1b9c:	cf 91       	pop	r28
    1b9e:	1f 91       	pop	r17
    1ba0:	0f 91       	pop	r16
    1ba2:	08 95       	ret

00001ba4 <malloc>:
    1ba4:	cf 93       	push	r28
    1ba6:	df 93       	push	r29
    1ba8:	ac 01       	movw	r20, r24
    1baa:	82 30       	cpi	r24, 0x02	; 2
    1bac:	91 05       	cpc	r25, r1
    1bae:	10 f4       	brcc	.+4      	; 0x1bb4 <malloc+0x10>
    1bb0:	42 e0       	ldi	r20, 0x02	; 2
    1bb2:	50 e0       	ldi	r21, 0x00	; 0
    1bb4:	e0 91 4f 06 	lds	r30, 0x064F
    1bb8:	f0 91 50 06 	lds	r31, 0x0650
    1bbc:	20 e0       	ldi	r18, 0x00	; 0
    1bbe:	30 e0       	ldi	r19, 0x00	; 0
    1bc0:	a0 e0       	ldi	r26, 0x00	; 0
    1bc2:	b0 e0       	ldi	r27, 0x00	; 0
    1bc4:	24 c0       	rjmp	.+72     	; 0x1c0e <malloc+0x6a>
    1bc6:	80 81       	ld	r24, Z
    1bc8:	91 81       	ldd	r25, Z+1	; 0x01
    1bca:	84 17       	cp	r24, r20
    1bcc:	95 07       	cpc	r25, r21
    1bce:	d0 f0       	brcs	.+52     	; 0x1c04 <malloc+0x60>
    1bd0:	84 17       	cp	r24, r20
    1bd2:	95 07       	cpc	r25, r21
    1bd4:	71 f4       	brne	.+28     	; 0x1bf2 <malloc+0x4e>
    1bd6:	82 81       	ldd	r24, Z+2	; 0x02
    1bd8:	93 81       	ldd	r25, Z+3	; 0x03
    1bda:	10 97       	sbiw	r26, 0x00	; 0
    1bdc:	29 f0       	breq	.+10     	; 0x1be8 <malloc+0x44>
    1bde:	13 96       	adiw	r26, 0x03	; 3
    1be0:	9c 93       	st	X, r25
    1be2:	8e 93       	st	-X, r24
    1be4:	12 97       	sbiw	r26, 0x02	; 2
    1be6:	2c c0       	rjmp	.+88     	; 0x1c40 <malloc+0x9c>
    1be8:	90 93 50 06 	sts	0x0650, r25
    1bec:	80 93 4f 06 	sts	0x064F, r24
    1bf0:	27 c0       	rjmp	.+78     	; 0x1c40 <malloc+0x9c>
    1bf2:	21 15       	cp	r18, r1
    1bf4:	31 05       	cpc	r19, r1
    1bf6:	19 f0       	breq	.+6      	; 0x1bfe <malloc+0x5a>
    1bf8:	82 17       	cp	r24, r18
    1bfa:	93 07       	cpc	r25, r19
    1bfc:	18 f4       	brcc	.+6      	; 0x1c04 <malloc+0x60>
    1bfe:	9c 01       	movw	r18, r24
    1c00:	bd 01       	movw	r22, r26
    1c02:	ef 01       	movw	r28, r30
    1c04:	92 81       	ldd	r25, Z+2	; 0x02
    1c06:	83 81       	ldd	r24, Z+3	; 0x03
    1c08:	df 01       	movw	r26, r30
    1c0a:	e9 2f       	mov	r30, r25
    1c0c:	f8 2f       	mov	r31, r24
    1c0e:	30 97       	sbiw	r30, 0x00	; 0
    1c10:	d1 f6       	brne	.-76     	; 0x1bc6 <malloc+0x22>
    1c12:	21 15       	cp	r18, r1
    1c14:	31 05       	cpc	r19, r1
    1c16:	f9 f0       	breq	.+62     	; 0x1c56 <malloc+0xb2>
    1c18:	c9 01       	movw	r24, r18
    1c1a:	84 1b       	sub	r24, r20
    1c1c:	95 0b       	sbc	r25, r21
    1c1e:	84 30       	cpi	r24, 0x04	; 4
    1c20:	91 05       	cpc	r25, r1
    1c22:	80 f4       	brcc	.+32     	; 0x1c44 <malloc+0xa0>
    1c24:	8a 81       	ldd	r24, Y+2	; 0x02
    1c26:	9b 81       	ldd	r25, Y+3	; 0x03
    1c28:	61 15       	cp	r22, r1
    1c2a:	71 05       	cpc	r23, r1
    1c2c:	21 f0       	breq	.+8      	; 0x1c36 <malloc+0x92>
    1c2e:	fb 01       	movw	r30, r22
    1c30:	93 83       	std	Z+3, r25	; 0x03
    1c32:	82 83       	std	Z+2, r24	; 0x02
    1c34:	04 c0       	rjmp	.+8      	; 0x1c3e <malloc+0x9a>
    1c36:	90 93 50 06 	sts	0x0650, r25
    1c3a:	80 93 4f 06 	sts	0x064F, r24
    1c3e:	fe 01       	movw	r30, r28
    1c40:	32 96       	adiw	r30, 0x02	; 2
    1c42:	42 c0       	rjmp	.+132    	; 0x1cc8 <malloc+0x124>
    1c44:	fe 01       	movw	r30, r28
    1c46:	e8 0f       	add	r30, r24
    1c48:	f9 1f       	adc	r31, r25
    1c4a:	41 93       	st	Z+, r20
    1c4c:	51 93       	st	Z+, r21
    1c4e:	02 97       	sbiw	r24, 0x02	; 2
    1c50:	99 83       	std	Y+1, r25	; 0x01
    1c52:	88 83       	st	Y, r24
    1c54:	39 c0       	rjmp	.+114    	; 0x1cc8 <malloc+0x124>
    1c56:	80 91 4d 06 	lds	r24, 0x064D
    1c5a:	90 91 4e 06 	lds	r25, 0x064E
    1c5e:	00 97       	sbiw	r24, 0x00	; 0
    1c60:	41 f4       	brne	.+16     	; 0x1c72 <malloc+0xce>
    1c62:	80 91 9e 05 	lds	r24, 0x059E
    1c66:	90 91 9f 05 	lds	r25, 0x059F
    1c6a:	90 93 4e 06 	sts	0x064E, r25
    1c6e:	80 93 4d 06 	sts	0x064D, r24
    1c72:	20 91 9c 05 	lds	r18, 0x059C
    1c76:	30 91 9d 05 	lds	r19, 0x059D
    1c7a:	21 15       	cp	r18, r1
    1c7c:	31 05       	cpc	r19, r1
    1c7e:	41 f4       	brne	.+16     	; 0x1c90 <malloc+0xec>
    1c80:	2d b7       	in	r18, 0x3d	; 61
    1c82:	3e b7       	in	r19, 0x3e	; 62
    1c84:	80 91 a0 05 	lds	r24, 0x05A0
    1c88:	90 91 a1 05 	lds	r25, 0x05A1
    1c8c:	28 1b       	sub	r18, r24
    1c8e:	39 0b       	sbc	r19, r25
    1c90:	e0 91 4d 06 	lds	r30, 0x064D
    1c94:	f0 91 4e 06 	lds	r31, 0x064E
    1c98:	e2 17       	cp	r30, r18
    1c9a:	f3 07       	cpc	r31, r19
    1c9c:	98 f4       	brcc	.+38     	; 0x1cc4 <malloc+0x120>
    1c9e:	2e 1b       	sub	r18, r30
    1ca0:	3f 0b       	sbc	r19, r31
    1ca2:	24 17       	cp	r18, r20
    1ca4:	35 07       	cpc	r19, r21
    1ca6:	70 f0       	brcs	.+28     	; 0x1cc4 <malloc+0x120>
    1ca8:	ca 01       	movw	r24, r20
    1caa:	02 96       	adiw	r24, 0x02	; 2
    1cac:	28 17       	cp	r18, r24
    1cae:	39 07       	cpc	r19, r25
    1cb0:	48 f0       	brcs	.+18     	; 0x1cc4 <malloc+0x120>
    1cb2:	8e 0f       	add	r24, r30
    1cb4:	9f 1f       	adc	r25, r31
    1cb6:	90 93 4e 06 	sts	0x064E, r25
    1cba:	80 93 4d 06 	sts	0x064D, r24
    1cbe:	41 93       	st	Z+, r20
    1cc0:	51 93       	st	Z+, r21
    1cc2:	02 c0       	rjmp	.+4      	; 0x1cc8 <malloc+0x124>
    1cc4:	e0 e0       	ldi	r30, 0x00	; 0
    1cc6:	f0 e0       	ldi	r31, 0x00	; 0
    1cc8:	cf 01       	movw	r24, r30
    1cca:	df 91       	pop	r29
    1ccc:	cf 91       	pop	r28
    1cce:	08 95       	ret

00001cd0 <free>:
    1cd0:	0f 93       	push	r16
    1cd2:	1f 93       	push	r17
    1cd4:	cf 93       	push	r28
    1cd6:	df 93       	push	r29
    1cd8:	9c 01       	movw	r18, r24
    1cda:	00 97       	sbiw	r24, 0x00	; 0
    1cdc:	09 f4       	brne	.+2      	; 0x1ce0 <free+0x10>
    1cde:	8c c0       	rjmp	.+280    	; 0x1df8 <free+0x128>
    1ce0:	dc 01       	movw	r26, r24
    1ce2:	12 97       	sbiw	r26, 0x02	; 2
    1ce4:	13 96       	adiw	r26, 0x03	; 3
    1ce6:	1c 92       	st	X, r1
    1ce8:	1e 92       	st	-X, r1
    1cea:	12 97       	sbiw	r26, 0x02	; 2
    1cec:	60 91 4f 06 	lds	r22, 0x064F
    1cf0:	70 91 50 06 	lds	r23, 0x0650
    1cf4:	61 15       	cp	r22, r1
    1cf6:	71 05       	cpc	r23, r1
    1cf8:	89 f4       	brne	.+34     	; 0x1d1c <free+0x4c>
    1cfa:	8d 91       	ld	r24, X+
    1cfc:	9c 91       	ld	r25, X
    1cfe:	11 97       	sbiw	r26, 0x01	; 1
    1d00:	82 0f       	add	r24, r18
    1d02:	93 1f       	adc	r25, r19
    1d04:	20 91 4d 06 	lds	r18, 0x064D
    1d08:	30 91 4e 06 	lds	r19, 0x064E
    1d0c:	28 17       	cp	r18, r24
    1d0e:	39 07       	cpc	r19, r25
    1d10:	69 f5       	brne	.+90     	; 0x1d6c <free+0x9c>
    1d12:	b0 93 4e 06 	sts	0x064E, r27
    1d16:	a0 93 4d 06 	sts	0x064D, r26
    1d1a:	6e c0       	rjmp	.+220    	; 0x1df8 <free+0x128>
    1d1c:	fb 01       	movw	r30, r22
    1d1e:	40 e0       	ldi	r20, 0x00	; 0
    1d20:	50 e0       	ldi	r21, 0x00	; 0
    1d22:	01 c0       	rjmp	.+2      	; 0x1d26 <free+0x56>
    1d24:	fc 01       	movw	r30, r24
    1d26:	ea 17       	cp	r30, r26
    1d28:	fb 07       	cpc	r31, r27
    1d2a:	30 f4       	brcc	.+12     	; 0x1d38 <free+0x68>
    1d2c:	82 81       	ldd	r24, Z+2	; 0x02
    1d2e:	93 81       	ldd	r25, Z+3	; 0x03
    1d30:	af 01       	movw	r20, r30
    1d32:	00 97       	sbiw	r24, 0x00	; 0
    1d34:	b9 f7       	brne	.-18     	; 0x1d24 <free+0x54>
    1d36:	1f c0       	rjmp	.+62     	; 0x1d76 <free+0xa6>
    1d38:	e9 01       	movw	r28, r18
    1d3a:	22 97       	sbiw	r28, 0x02	; 2
    1d3c:	fb 83       	std	Y+3, r31	; 0x03
    1d3e:	ea 83       	std	Y+2, r30	; 0x02
    1d40:	08 81       	ld	r16, Y
    1d42:	19 81       	ldd	r17, Y+1	; 0x01
    1d44:	c9 01       	movw	r24, r18
    1d46:	80 0f       	add	r24, r16
    1d48:	91 1f       	adc	r25, r17
    1d4a:	8e 17       	cp	r24, r30
    1d4c:	9f 07       	cpc	r25, r31
    1d4e:	59 f4       	brne	.+22     	; 0x1d66 <free+0x96>
    1d50:	80 81       	ld	r24, Z
    1d52:	91 81       	ldd	r25, Z+1	; 0x01
    1d54:	80 0f       	add	r24, r16
    1d56:	91 1f       	adc	r25, r17
    1d58:	02 96       	adiw	r24, 0x02	; 2
    1d5a:	99 83       	std	Y+1, r25	; 0x01
    1d5c:	88 83       	st	Y, r24
    1d5e:	82 81       	ldd	r24, Z+2	; 0x02
    1d60:	93 81       	ldd	r25, Z+3	; 0x03
    1d62:	9b 83       	std	Y+3, r25	; 0x03
    1d64:	8a 83       	std	Y+2, r24	; 0x02
    1d66:	41 15       	cp	r20, r1
    1d68:	51 05       	cpc	r21, r1
    1d6a:	29 f4       	brne	.+10     	; 0x1d76 <free+0xa6>
    1d6c:	b0 93 50 06 	sts	0x0650, r27
    1d70:	a0 93 4f 06 	sts	0x064F, r26
    1d74:	41 c0       	rjmp	.+130    	; 0x1df8 <free+0x128>
    1d76:	fa 01       	movw	r30, r20
    1d78:	b3 83       	std	Z+3, r27	; 0x03
    1d7a:	a2 83       	std	Z+2, r26	; 0x02
    1d7c:	c1 91       	ld	r28, Z+
    1d7e:	d1 91       	ld	r29, Z+
    1d80:	ec 0f       	add	r30, r28
    1d82:	fd 1f       	adc	r31, r29
    1d84:	ae 17       	cp	r26, r30
    1d86:	bf 07       	cpc	r27, r31
    1d88:	81 f4       	brne	.+32     	; 0x1daa <free+0xda>
    1d8a:	f9 01       	movw	r30, r18
    1d8c:	92 91       	ld	r25, -Z
    1d8e:	82 91       	ld	r24, -Z
    1d90:	8c 0f       	add	r24, r28
    1d92:	9d 1f       	adc	r25, r29
    1d94:	02 96       	adiw	r24, 0x02	; 2
    1d96:	da 01       	movw	r26, r20
    1d98:	11 96       	adiw	r26, 0x01	; 1
    1d9a:	9c 93       	st	X, r25
    1d9c:	8e 93       	st	-X, r24
    1d9e:	82 81       	ldd	r24, Z+2	; 0x02
    1da0:	93 81       	ldd	r25, Z+3	; 0x03
    1da2:	13 96       	adiw	r26, 0x03	; 3
    1da4:	9c 93       	st	X, r25
    1da6:	8e 93       	st	-X, r24
    1da8:	12 97       	sbiw	r26, 0x02	; 2
    1daa:	e0 e0       	ldi	r30, 0x00	; 0
    1dac:	f0 e0       	ldi	r31, 0x00	; 0
    1dae:	02 c0       	rjmp	.+4      	; 0x1db4 <free+0xe4>
    1db0:	fb 01       	movw	r30, r22
    1db2:	bc 01       	movw	r22, r24
    1db4:	db 01       	movw	r26, r22
    1db6:	12 96       	adiw	r26, 0x02	; 2
    1db8:	8d 91       	ld	r24, X+
    1dba:	9c 91       	ld	r25, X
    1dbc:	13 97       	sbiw	r26, 0x03	; 3
    1dbe:	00 97       	sbiw	r24, 0x00	; 0
    1dc0:	b9 f7       	brne	.-18     	; 0x1db0 <free+0xe0>
    1dc2:	cb 01       	movw	r24, r22
    1dc4:	02 96       	adiw	r24, 0x02	; 2
    1dc6:	2d 91       	ld	r18, X+
    1dc8:	3c 91       	ld	r19, X
    1dca:	11 97       	sbiw	r26, 0x01	; 1
    1dcc:	82 0f       	add	r24, r18
    1dce:	93 1f       	adc	r25, r19
    1dd0:	20 91 4d 06 	lds	r18, 0x064D
    1dd4:	30 91 4e 06 	lds	r19, 0x064E
    1dd8:	28 17       	cp	r18, r24
    1dda:	39 07       	cpc	r19, r25
    1ddc:	69 f4       	brne	.+26     	; 0x1df8 <free+0x128>
    1dde:	30 97       	sbiw	r30, 0x00	; 0
    1de0:	29 f4       	brne	.+10     	; 0x1dec <free+0x11c>
    1de2:	10 92 50 06 	sts	0x0650, r1
    1de6:	10 92 4f 06 	sts	0x064F, r1
    1dea:	02 c0       	rjmp	.+4      	; 0x1df0 <free+0x120>
    1dec:	13 82       	std	Z+3, r1	; 0x03
    1dee:	12 82       	std	Z+2, r1	; 0x02
    1df0:	70 93 4e 06 	sts	0x064E, r23
    1df4:	60 93 4d 06 	sts	0x064D, r22
    1df8:	df 91       	pop	r29
    1dfa:	cf 91       	pop	r28
    1dfc:	1f 91       	pop	r17
    1dfe:	0f 91       	pop	r16
    1e00:	08 95       	ret

00001e02 <memset>:
    1e02:	dc 01       	movw	r26, r24
    1e04:	01 c0       	rjmp	.+2      	; 0x1e08 <memset+0x6>
    1e06:	6d 93       	st	X+, r22
    1e08:	41 50       	subi	r20, 0x01	; 1
    1e0a:	50 40       	sbci	r21, 0x00	; 0
    1e0c:	e0 f7       	brcc	.-8      	; 0x1e06 <memset+0x4>
    1e0e:	08 95       	ret

00001e10 <_exit>:
    1e10:	f8 94       	cli

00001e12 <__stop_program>:
    1e12:	ff cf       	rjmp	.-2      	; 0x1e12 <__stop_program>
